Component: ARM Compiler 5.05 update 1 (build 106) Tool: armlink [4d0efa]

==============================================================================

Section Cross References

    startup_stm32f10x_hd.o(STACK) refers (Special) to heapauxi.o(.text) for __use_two_region_memory
    startup_stm32f10x_hd.o(HEAP) refers (Special) to heapauxi.o(.text) for __use_two_region_memory
    startup_stm32f10x_hd.o(RESET) refers (Special) to heapauxi.o(.text) for __use_two_region_memory
    startup_stm32f10x_hd.o(RESET) refers to startup_stm32f10x_hd.o(STACK) for __initial_sp
    startup_stm32f10x_hd.o(RESET) refers to startup_stm32f10x_hd.o(.text) for Reset_Handler
    startup_stm32f10x_hd.o(RESET) refers to usart.o(i.USART1_IRQHandler) for USART1_IRQHandler
    startup_stm32f10x_hd.o(RESET) refers to sdio_sdcard.o(i.SDIO_IRQHandler) for SDIO_IRQHandler
    startup_stm32f10x_hd.o(.text) refers (Special) to heapauxi.o(.text) for __use_two_region_memory
    startup_stm32f10x_hd.o(.text) refers to __main.o(!!!main) for __main
    startup_stm32f10x_hd.o(.text) refers to startup_stm32f10x_hd.o(HEAP) for Heap_Mem
    startup_stm32f10x_hd.o(.text) refers to startup_stm32f10x_hd.o(STACK) for Stack_Mem
    test.o(i.gui_draw_hline) refers to ili93xx.o(i.LCD_Fill) for LCD_Fill
    test.o(i.gui_fill_circle) refers to test.o(i.gui_draw_hline) for gui_draw_hline
    test.o(i.lcd_draw_bline) refers to test.o(i.gui_fill_circle) for gui_fill_circle
    test.o(i.main) refers to _printf_percent.o(.ARM.Collect$$_printf_percent$$00000000) for _printf_percent
    test.o(i.main) refers to _printf_d.o(.ARM.Collect$$_printf_percent$$00000009) for _printf_d
    test.o(i.main) refers to _printf_dec.o(.text) for _printf_int_dec
    test.o(i.main) refers to _printf_s.o(.ARM.Collect$$_printf_percent$$00000014) for _printf_s
    test.o(i.main) refers to _printf_str.o(.text) for _printf_str
    test.o(i.main) refers to sys.o(i.Stm32_Clock_Init) for Stm32_Clock_Init
    test.o(i.main) refers to usart.o(i.uart_init) for uart_init
    test.o(i.main) refers to delay.o(i.delay_init) for delay_init
    test.o(i.main) refers to led.o(i.LED_Init) for LED_Init
    test.o(i.main) refers to key.o(i.KEY_Init) for KEY_Init
    test.o(i.main) refers to ili93xx.o(i.LCD_Init) for LCD_Init
    test.o(i.main) refers to w25qxx.o(i.W25QXX_Init) for W25QXX_Init
    test.o(i.main) refers to malloc.o(i.my_mem_init) for my_mem_init
    test.o(i.main) refers to exfuns.o(i.exfuns_init) for exfuns_init
    test.o(i.main) refers to ff.o(i.f_mount) for f_mount
    test.o(i.main) refers to recognition.o(.text) for alientek_ncr_init
    test.o(i.main) refers to ili93xx.o(i.LCD_ShowString) for LCD_ShowString
    test.o(i.main) refers to delay.o(i.delay_ms) for delay_ms
    test.o(i.main) refers to ili93xx.o(i.LCD_Fill) for LCD_Fill
    test.o(i.main) refers to fontupd.o(i.font_init) for font_init
    test.o(i.main) refers to text.o(i.Show_Str) for Show_Str
    test.o(i.main) refers to ili93xx.o(i.LCD_DrawRectangle) for LCD_DrawRectangle
    test.o(i.main) refers to key.o(i.KEY_Scan) for KEY_Scan
    test.o(i.main) refers to touch.o(i.TP_Adjust) for TP_Adjust
    test.o(i.main) refers to ili93xx.o(i.LCD_Clear) for LCD_Clear
    test.o(i.main) refers to test.o(i.lcd_draw_bline) for lcd_draw_bline
    test.o(i.main) refers to noretval__2printf.o(.text) for __2printf
    test.o(i.main) refers to touch.o(.data) for tp_dev
    test.o(i.main) refers to exfuns.o(.data) for fs
    test.o(i.main) refers to ili93xx.o(.data) for POINT_COLOR
    test.o(i.main) refers to ili93xx.o(.bss) for lcddev
    test.o(i.main) refers to test.o(.bss) for READ_BUF
    delay.o(i.delay_init) refers to delay.o(.data) for fac_us
    delay.o(i.delay_ms) refers to delay.o(.data) for fac_ms
    delay.o(i.delay_us) refers to delay.o(.data) for fac_us
    sys.o(i.MYRCC_DeInit) refers to sys.o(i.MY_NVIC_SetVectorTable) for MY_NVIC_SetVectorTable
    sys.o(i.MY_NVIC_Init) refers to sys.o(i.MY_NVIC_PriorityGroupConfig) for MY_NVIC_PriorityGroupConfig
    sys.o(i.Stm32_Clock_Init) refers to sys.o(i.MYRCC_DeInit) for MYRCC_DeInit
    sys.o(i.Sys_Standby) refers to sys.o(i.WFI_SET) for WFI_SET
    usart.o(i.USART1_IRQHandler) refers (Special) to use_no_semi_2.o(.text) for __use_no_semihosting
    usart.o(i.USART1_IRQHandler) refers to usart.o(.data) for USART_RX_STA
    usart.o(i.USART1_IRQHandler) refers to usart.o(.bss) for USART_RX_BUF
    usart.o(i._sys_exit) refers (Special) to use_no_semi_2.o(.text) for __use_no_semihosting
    usart.o(i.fputc) refers (Special) to use_no_semi_2.o(.text) for __use_no_semihosting
    usart.o(i.uart_init) refers (Special) to use_no_semi_2.o(.text) for __use_no_semihosting
    usart.o(i.uart_init) refers to fflt_clz.o(x$fpl$ffltu) for __aeabi_ui2f
    usart.o(i.uart_init) refers to fdiv.o(x$fpl$fdiv) for __aeabi_fdiv
    usart.o(i.uart_init) refers to ffixu.o(x$fpl$ffixu) for __aeabi_f2uiz
    usart.o(i.uart_init) refers to faddsub_clz.o(x$fpl$frsb) for __aeabi_frsub
    usart.o(i.uart_init) refers to fmul.o(x$fpl$fmul) for __aeabi_fmul
    usart.o(i.uart_init) refers to sys.o(i.MY_NVIC_Init) for MY_NVIC_Init
    usart.o(.bss) refers (Special) to use_no_semi_2.o(.text) for __use_no_semihosting
    usart.o(.data) refers (Special) to use_no_semi_2.o(.text) for __use_no_semihosting
    ili93xx.o(i.LCD_Clear) refers to ili93xx.o(i.LCD_SetCursor) for LCD_SetCursor
    ili93xx.o(i.LCD_Clear) refers to ili93xx.o(i.LCD_WriteRAM_Prepare) for LCD_WriteRAM_Prepare
    ili93xx.o(i.LCD_Clear) refers to ili93xx.o(.bss) for lcddev
    ili93xx.o(i.LCD_Color_Fill) refers to ili93xx.o(i.LCD_SetCursor) for LCD_SetCursor
    ili93xx.o(i.LCD_Color_Fill) refers to ili93xx.o(i.LCD_WriteRAM_Prepare) for LCD_WriteRAM_Prepare
    ili93xx.o(i.LCD_DisplayOff) refers to ili93xx.o(i.LCD_WR_REG) for LCD_WR_REG
    ili93xx.o(i.LCD_DisplayOff) refers to ili93xx.o(i.LCD_WriteReg) for LCD_WriteReg
    ili93xx.o(i.LCD_DisplayOff) refers to ili93xx.o(.bss) for lcddev
    ili93xx.o(i.LCD_DisplayOn) refers to ili93xx.o(i.LCD_WR_REG) for LCD_WR_REG
    ili93xx.o(i.LCD_DisplayOn) refers to ili93xx.o(i.LCD_WriteReg) for LCD_WriteReg
    ili93xx.o(i.LCD_DisplayOn) refers to ili93xx.o(.bss) for lcddev
    ili93xx.o(i.LCD_Display_Dir) refers to ili93xx.o(i.LCD_Scan_Dir) for LCD_Scan_Dir
    ili93xx.o(i.LCD_Display_Dir) refers to ili93xx.o(.bss) for lcddev
    ili93xx.o(i.LCD_DrawLine) refers to ili93xx.o(i.LCD_DrawPoint) for LCD_DrawPoint
    ili93xx.o(i.LCD_DrawPoint) refers to ili93xx.o(i.LCD_SetCursor) for LCD_SetCursor
    ili93xx.o(i.LCD_DrawPoint) refers to ili93xx.o(i.LCD_WriteRAM_Prepare) for LCD_WriteRAM_Prepare
    ili93xx.o(i.LCD_DrawPoint) refers to ili93xx.o(.data) for POINT_COLOR
    ili93xx.o(i.LCD_DrawRectangle) refers to ili93xx.o(i.LCD_DrawLine) for LCD_DrawLine
    ili93xx.o(i.LCD_Draw_Circle) refers to ili93xx.o(i.LCD_DrawPoint) for LCD_DrawPoint
    ili93xx.o(i.LCD_Fast_DrawPoint) refers to ili93xx.o(i.LCD_WR_REG) for LCD_WR_REG
    ili93xx.o(i.LCD_Fast_DrawPoint) refers to ili93xx.o(i.LCD_WR_DATA) for LCD_WR_DATA
    ili93xx.o(i.LCD_Fast_DrawPoint) refers to ili93xx.o(i.LCD_WriteReg) for LCD_WriteReg
    ili93xx.o(i.LCD_Fast_DrawPoint) refers to ili93xx.o(.bss) for lcddev
    ili93xx.o(i.LCD_Fill) refers to ili93xx.o(i.LCD_SetCursor) for LCD_SetCursor
    ili93xx.o(i.LCD_Fill) refers to ili93xx.o(i.LCD_WriteRAM_Prepare) for LCD_WriteRAM_Prepare
    ili93xx.o(i.LCD_Fill) refers to ili93xx.o(.bss) for lcddev
    ili93xx.o(i.LCD_Init) refers to _printf_percent.o(.ARM.Collect$$_printf_percent$$00000000) for _printf_percent
    ili93xx.o(i.LCD_Init) refers to _printf_x.o(.ARM.Collect$$_printf_percent$$0000000C) for _printf_x
    ili93xx.o(i.LCD_Init) refers to _printf_hex_int.o(.text) for _printf_longlong_hex
    ili93xx.o(i.LCD_Init) refers to delay.o(i.delay_ms) for delay_ms
    ili93xx.o(i.LCD_Init) refers to ili93xx.o(i.LCD_ReadReg) for LCD_ReadReg
    ili93xx.o(i.LCD_Init) refers to ili93xx.o(i.LCD_WR_REG) for LCD_WR_REG
    ili93xx.o(i.LCD_Init) refers to ili93xx.o(i.LCD_RD_DATA) for LCD_RD_DATA
    ili93xx.o(i.LCD_Init) refers to noretval__2printf.o(.text) for __2printf
    ili93xx.o(i.LCD_Init) refers to ili93xx.o(i.LCD_WR_DATA) for LCD_WR_DATA
    ili93xx.o(i.LCD_Init) refers to ili93xx.o(.bss) for lcddev
    ili93xx.o(i.LCD_Init) refers to ili93xx.o(i.LCD_WriteReg) for LCD_WriteReg
    ili93xx.o(i.LCD_Init) refers to delay.o(i.delay_us) for delay_us
    ili93xx.o(i.LCD_Init) refers to ili93xx.o(i.LCD_SSD_BackLightSet) for LCD_SSD_BackLightSet
    ili93xx.o(i.LCD_Init) refers to ili93xx.o(i.LCD_Display_Dir) for LCD_Display_Dir
    ili93xx.o(i.LCD_Init) refers to ili93xx.o(i.LCD_Clear) for LCD_Clear
    ili93xx.o(i.LCD_ReadPoint) refers to ili93xx.o(i.LCD_SetCursor) for LCD_SetCursor
    ili93xx.o(i.LCD_ReadPoint) refers to ili93xx.o(i.LCD_WR_REG) for LCD_WR_REG
    ili93xx.o(i.LCD_ReadPoint) refers to ili93xx.o(i.opt_delay) for opt_delay
    ili93xx.o(i.LCD_ReadPoint) refers to ili93xx.o(i.LCD_RD_DATA) for LCD_RD_DATA
    ili93xx.o(i.LCD_ReadPoint) refers to ili93xx.o(i.LCD_BGR2RGB) for LCD_BGR2RGB
    ili93xx.o(i.LCD_ReadPoint) refers to ili93xx.o(.bss) for lcddev
    ili93xx.o(i.LCD_ReadReg) refers to ili93xx.o(i.LCD_WR_REG) for LCD_WR_REG
    ili93xx.o(i.LCD_ReadReg) refers to delay.o(i.delay_us) for delay_us
    ili93xx.o(i.LCD_ReadReg) refers to ili93xx.o(i.LCD_RD_DATA) for LCD_RD_DATA
    ili93xx.o(i.LCD_SSD_BackLightSet) refers to ili93xx.o(i.LCD_WR_REG) for LCD_WR_REG
    ili93xx.o(i.LCD_SSD_BackLightSet) refers to ili93xx.o(i.LCD_WR_DATA) for LCD_WR_DATA
    ili93xx.o(i.LCD_SSD_BackLightSet) refers to dflt_clz.o(x$fpl$dfltu) for __aeabi_ui2d
    ili93xx.o(i.LCD_SSD_BackLightSet) refers to dmul.o(x$fpl$dmul) for __aeabi_dmul
    ili93xx.o(i.LCD_SSD_BackLightSet) refers to dfixu.o(x$fpl$dfixu) for __aeabi_d2uiz
    ili93xx.o(i.LCD_Scan_Dir) refers to ili93xx.o(i.LCD_WriteReg) for LCD_WriteReg
    ili93xx.o(i.LCD_Scan_Dir) refers to ili93xx.o(i.LCD_WR_REG) for LCD_WR_REG
    ili93xx.o(i.LCD_Scan_Dir) refers to ili93xx.o(i.LCD_WR_DATA) for LCD_WR_DATA
    ili93xx.o(i.LCD_Scan_Dir) refers to ili93xx.o(.bss) for lcddev
    ili93xx.o(i.LCD_SetCursor) refers to ili93xx.o(i.LCD_WR_REG) for LCD_WR_REG
    ili93xx.o(i.LCD_SetCursor) refers to ili93xx.o(i.LCD_WR_DATA) for LCD_WR_DATA
    ili93xx.o(i.LCD_SetCursor) refers to ili93xx.o(i.LCD_WriteReg) for LCD_WriteReg
    ili93xx.o(i.LCD_SetCursor) refers to ili93xx.o(.bss) for lcddev
    ili93xx.o(i.LCD_Set_Window) refers to ili93xx.o(i.LCD_WR_REG) for LCD_WR_REG
    ili93xx.o(i.LCD_Set_Window) refers to ili93xx.o(i.LCD_WR_DATA) for LCD_WR_DATA
    ili93xx.o(i.LCD_Set_Window) refers to ili93xx.o(i.LCD_WriteReg) for LCD_WriteReg
    ili93xx.o(i.LCD_Set_Window) refers to ili93xx.o(i.LCD_SetCursor) for LCD_SetCursor
    ili93xx.o(i.LCD_Set_Window) refers to ili93xx.o(.bss) for lcddev
    ili93xx.o(i.LCD_ShowChar) refers to ili93xx.o(i.LCD_Fast_DrawPoint) for LCD_Fast_DrawPoint
    ili93xx.o(i.LCD_ShowChar) refers to ili93xx.o(.constdata) for asc2_1206
    ili93xx.o(i.LCD_ShowChar) refers to ili93xx.o(.data) for POINT_COLOR
    ili93xx.o(i.LCD_ShowChar) refers to ili93xx.o(.bss) for lcddev
    ili93xx.o(i.LCD_ShowNum) refers to ili93xx.o(i.LCD_Pow) for LCD_Pow
    ili93xx.o(i.LCD_ShowNum) refers to ili93xx.o(i.LCD_ShowChar) for LCD_ShowChar
    ili93xx.o(i.LCD_ShowString) refers to ili93xx.o(i.LCD_ShowChar) for LCD_ShowChar
    ili93xx.o(i.LCD_ShowxNum) refers to ili93xx.o(i.LCD_Pow) for LCD_Pow
    ili93xx.o(i.LCD_ShowxNum) refers to ili93xx.o(i.LCD_ShowChar) for LCD_ShowChar
    ili93xx.o(i.LCD_WriteRAM_Prepare) refers to ili93xx.o(.bss) for lcddev
    key.o(i.KEY_Scan) refers to delay.o(i.delay_ms) for delay_ms
    key.o(i.KEY_Scan) refers to key.o(.data) for key_up
    sdio_sdcard.o(i.FindSCR) refers to sdio_sdcard.o(i.SDIO_Send_Cmd) for SDIO_Send_Cmd
    sdio_sdcard.o(i.FindSCR) refers to sdio_sdcard.o(i.CmdResp1Error) for CmdResp1Error
    sdio_sdcard.o(i.FindSCR) refers to sdio_sdcard.o(i.SDIO_Send_Data_Cfg) for SDIO_Send_Data_Cfg
    sdio_sdcard.o(i.IsCardProgramming) refers to sdio_sdcard.o(i.SDIO_Send_Cmd) for SDIO_Send_Cmd
    sdio_sdcard.o(i.IsCardProgramming) refers to sdio_sdcard.o(.data) for RCA
    sdio_sdcard.o(i.SDEnWideBus) refers to sdio_sdcard.o(i.FindSCR) for FindSCR
    sdio_sdcard.o(i.SDEnWideBus) refers to sdio_sdcard.o(i.SDIO_Send_Cmd) for SDIO_Send_Cmd
    sdio_sdcard.o(i.SDEnWideBus) refers to sdio_sdcard.o(i.CmdResp1Error) for CmdResp1Error
    sdio_sdcard.o(i.SDEnWideBus) refers to sdio_sdcard.o(.data) for RCA
    sdio_sdcard.o(i.SDIO_IRQHandler) refers to sdio_sdcard.o(i.SD_ProcessIRQSrc) for SD_ProcessIRQSrc
    sdio_sdcard.o(i.SD_EnableWideBusOperation) refers to sdio_sdcard.o(i.SDEnWideBus) for SDEnWideBus
    sdio_sdcard.o(i.SD_EnableWideBusOperation) refers to sdio_sdcard.o(.data) for CardType
    sdio_sdcard.o(i.SD_GetCardInfo) refers to sdio_sdcard.o(.data) for CardType
    sdio_sdcard.o(i.SD_GetCardInfo) refers to sdio_sdcard.o(.bss) for CSD_Tab
    sdio_sdcard.o(i.SD_GetState) refers to sdio_sdcard.o(i.SD_SendStatus) for SD_SendStatus
    sdio_sdcard.o(i.SD_Init) refers to sys.o(i.MY_NVIC_Init) for MY_NVIC_Init
    sdio_sdcard.o(i.SD_Init) refers to sdio_sdcard.o(i.SD_PowerON) for SD_PowerON
    sdio_sdcard.o(i.SD_Init) refers to sdio_sdcard.o(i.SD_InitializeCards) for SD_InitializeCards
    sdio_sdcard.o(i.SD_Init) refers to sdio_sdcard.o(i.SD_GetCardInfo) for SD_GetCardInfo
    sdio_sdcard.o(i.SD_Init) refers to sdio_sdcard.o(i.SD_SelectDeselect) for SD_SelectDeselect
    sdio_sdcard.o(i.SD_Init) refers to sdio_sdcard.o(i.SD_EnableWideBusOperation) for SD_EnableWideBusOperation
    sdio_sdcard.o(i.SD_Init) refers to sdio_sdcard.o(i.SDIO_Clock_Set) for SDIO_Clock_Set
    sdio_sdcard.o(i.SD_Init) refers to sdio_sdcard.o(i.SD_SetDeviceMode) for SD_SetDeviceMode
    sdio_sdcard.o(i.SD_Init) refers to sdio_sdcard.o(.bss) for SDCardInfo
    sdio_sdcard.o(i.SD_Init) refers to sdio_sdcard.o(.data) for CardType
    sdio_sdcard.o(i.SD_InitializeCards) refers to sdio_sdcard.o(i.SDIO_Send_Cmd) for SDIO_Send_Cmd
    sdio_sdcard.o(i.SD_InitializeCards) refers to sdio_sdcard.o(i.CmdResp2Error) for CmdResp2Error
    sdio_sdcard.o(i.SD_InitializeCards) refers to sdio_sdcard.o(i.CmdResp6Error) for CmdResp6Error
    sdio_sdcard.o(i.SD_InitializeCards) refers to sdio_sdcard.o(.data) for CardType
    sdio_sdcard.o(i.SD_InitializeCards) refers to sdio_sdcard.o(.bss) for CID_Tab
    sdio_sdcard.o(i.SD_PowerON) refers to sdio_sdcard.o(i.SDIO_Clock_Set) for SDIO_Clock_Set
    sdio_sdcard.o(i.SD_PowerON) refers to sdio_sdcard.o(i.SDIO_Send_Cmd) for SDIO_Send_Cmd
    sdio_sdcard.o(i.SD_PowerON) refers to sdio_sdcard.o(i.CmdError) for CmdError
    sdio_sdcard.o(i.SD_PowerON) refers to sdio_sdcard.o(i.CmdResp7Error) for CmdResp7Error
    sdio_sdcard.o(i.SD_PowerON) refers to sdio_sdcard.o(i.CmdResp1Error) for CmdResp1Error
    sdio_sdcard.o(i.SD_PowerON) refers to sdio_sdcard.o(i.CmdResp3Error) for CmdResp3Error
    sdio_sdcard.o(i.SD_PowerON) refers to sdio_sdcard.o(.data) for CardType
    sdio_sdcard.o(i.SD_ProcessIRQSrc) refers to sdio_sdcard.o(i.SDIO_Send_Cmd) for SDIO_Send_Cmd
    sdio_sdcard.o(i.SD_ProcessIRQSrc) refers to sdio_sdcard.o(i.CmdResp1Error) for CmdResp1Error
    sdio_sdcard.o(i.SD_ProcessIRQSrc) refers to sdio_sdcard.o(.data) for StopCondition
    sdio_sdcard.o(i.SD_ReadBlock) refers to sdio_sdcard.o(i.SDIO_Send_Data_Cfg) for SDIO_Send_Data_Cfg
    sdio_sdcard.o(i.SD_ReadBlock) refers to sdio_sdcard.o(i.convert_from_bytes_to_power_of_two) for convert_from_bytes_to_power_of_two
    sdio_sdcard.o(i.SD_ReadBlock) refers to sdio_sdcard.o(i.SDIO_Send_Cmd) for SDIO_Send_Cmd
    sdio_sdcard.o(i.SD_ReadBlock) refers to sdio_sdcard.o(i.CmdResp1Error) for CmdResp1Error
    sdio_sdcard.o(i.SD_ReadBlock) refers to sys.o(i.INTX_DISABLE) for INTX_DISABLE
    sdio_sdcard.o(i.SD_ReadBlock) refers to sys.o(i.INTX_ENABLE) for INTX_ENABLE
    sdio_sdcard.o(i.SD_ReadBlock) refers to sdio_sdcard.o(i.SD_DMA_Config) for SD_DMA_Config
    sdio_sdcard.o(i.SD_ReadBlock) refers to sdio_sdcard.o(.data) for CardType
    sdio_sdcard.o(i.SD_ReadDisk) refers to sdio_sdcard.o(i.SD_ReadBlock) for SD_ReadBlock
    sdio_sdcard.o(i.SD_ReadDisk) refers to rt_memcpy_v6.o(.text) for __aeabi_memcpy
    sdio_sdcard.o(i.SD_ReadDisk) refers to sdio_sdcard.o(i.SD_ReadMultiBlocks) for SD_ReadMultiBlocks
    sdio_sdcard.o(i.SD_ReadDisk) refers to sdio_sdcard.o(.bss) for SDIO_DATA_BUFFER
    sdio_sdcard.o(i.SD_ReadMultiBlocks) refers to sdio_sdcard.o(i.SDIO_Send_Data_Cfg) for SDIO_Send_Data_Cfg
    sdio_sdcard.o(i.SD_ReadMultiBlocks) refers to sdio_sdcard.o(i.convert_from_bytes_to_power_of_two) for convert_from_bytes_to_power_of_two
    sdio_sdcard.o(i.SD_ReadMultiBlocks) refers to sdio_sdcard.o(i.SDIO_Send_Cmd) for SDIO_Send_Cmd
    sdio_sdcard.o(i.SD_ReadMultiBlocks) refers to sdio_sdcard.o(i.CmdResp1Error) for CmdResp1Error
    sdio_sdcard.o(i.SD_ReadMultiBlocks) refers to sys.o(i.INTX_DISABLE) for INTX_DISABLE
    sdio_sdcard.o(i.SD_ReadMultiBlocks) refers to sys.o(i.INTX_ENABLE) for INTX_ENABLE
    sdio_sdcard.o(i.SD_ReadMultiBlocks) refers to sdio_sdcard.o(i.SD_DMA_Config) for SD_DMA_Config
    sdio_sdcard.o(i.SD_ReadMultiBlocks) refers to sdio_sdcard.o(.data) for tempbuff
    sdio_sdcard.o(i.SD_SelectDeselect) refers to sdio_sdcard.o(i.SDIO_Send_Cmd) for SDIO_Send_Cmd
    sdio_sdcard.o(i.SD_SelectDeselect) refers to sdio_sdcard.o(i.CmdResp1Error) for CmdResp1Error
    sdio_sdcard.o(i.SD_SendStatus) refers to sdio_sdcard.o(i.SDIO_Send_Cmd) for SDIO_Send_Cmd
    sdio_sdcard.o(i.SD_SendStatus) refers to sdio_sdcard.o(i.CmdResp1Error) for CmdResp1Error
    sdio_sdcard.o(i.SD_SendStatus) refers to sdio_sdcard.o(.data) for RCA
    sdio_sdcard.o(i.SD_SetDeviceMode) refers to sdio_sdcard.o(.data) for DeviceMode
    sdio_sdcard.o(i.SD_WriteBlock) refers to sdio_sdcard.o(i.SDIO_Send_Data_Cfg) for SDIO_Send_Data_Cfg
    sdio_sdcard.o(i.SD_WriteBlock) refers to sdio_sdcard.o(i.convert_from_bytes_to_power_of_two) for convert_from_bytes_to_power_of_two
    sdio_sdcard.o(i.SD_WriteBlock) refers to sdio_sdcard.o(i.SDIO_Send_Cmd) for SDIO_Send_Cmd
    sdio_sdcard.o(i.SD_WriteBlock) refers to sdio_sdcard.o(i.CmdResp1Error) for CmdResp1Error
    sdio_sdcard.o(i.SD_WriteBlock) refers to sys.o(i.INTX_DISABLE) for INTX_DISABLE
    sdio_sdcard.o(i.SD_WriteBlock) refers to sys.o(i.INTX_ENABLE) for INTX_ENABLE
    sdio_sdcard.o(i.SD_WriteBlock) refers to sdio_sdcard.o(i.SD_DMA_Config) for SD_DMA_Config
    sdio_sdcard.o(i.SD_WriteBlock) refers to sdio_sdcard.o(i.SD_Init) for SD_Init
    sdio_sdcard.o(i.SD_WriteBlock) refers to sdio_sdcard.o(i.IsCardProgramming) for IsCardProgramming
    sdio_sdcard.o(i.SD_WriteBlock) refers to sdio_sdcard.o(.data) for CardType
    sdio_sdcard.o(i.SD_WriteDisk) refers to rt_memcpy_v6.o(.text) for __aeabi_memcpy
    sdio_sdcard.o(i.SD_WriteDisk) refers to sdio_sdcard.o(i.SD_WriteBlock) for SD_WriteBlock
    sdio_sdcard.o(i.SD_WriteDisk) refers to sdio_sdcard.o(i.SD_WriteMultiBlocks) for SD_WriteMultiBlocks
    sdio_sdcard.o(i.SD_WriteDisk) refers to sdio_sdcard.o(.bss) for SDIO_DATA_BUFFER
    sdio_sdcard.o(i.SD_WriteMultiBlocks) refers to sdio_sdcard.o(i.SDIO_Send_Data_Cfg) for SDIO_Send_Data_Cfg
    sdio_sdcard.o(i.SD_WriteMultiBlocks) refers to sdio_sdcard.o(i.convert_from_bytes_to_power_of_two) for convert_from_bytes_to_power_of_two
    sdio_sdcard.o(i.SD_WriteMultiBlocks) refers to sdio_sdcard.o(i.SDIO_Send_Cmd) for SDIO_Send_Cmd
    sdio_sdcard.o(i.SD_WriteMultiBlocks) refers to sdio_sdcard.o(i.CmdResp1Error) for CmdResp1Error
    sdio_sdcard.o(i.SD_WriteMultiBlocks) refers to sys.o(i.INTX_DISABLE) for INTX_DISABLE
    sdio_sdcard.o(i.SD_WriteMultiBlocks) refers to sys.o(i.INTX_ENABLE) for INTX_ENABLE
    sdio_sdcard.o(i.SD_WriteMultiBlocks) refers to sdio_sdcard.o(i.SD_DMA_Config) for SD_DMA_Config
    sdio_sdcard.o(i.SD_WriteMultiBlocks) refers to sdio_sdcard.o(i.SD_Init) for SD_Init
    sdio_sdcard.o(i.SD_WriteMultiBlocks) refers to sdio_sdcard.o(i.IsCardProgramming) for IsCardProgramming
    sdio_sdcard.o(i.SD_WriteMultiBlocks) refers to sdio_sdcard.o(.data) for CardType
    spi.o(i.SPI1_Init) refers to spi.o(i.SPI1_ReadWriteByte) for SPI1_ReadWriteByte
    spi.o(i.SPI2_Init) refers to spi.o(i.SPI2_ReadWriteByte) for SPI2_ReadWriteByte
    w25qxx.o(i.W25QXX_Erase_Chip) refers to w25qxx.o(i.W25QXX_Write_Enable) for W25QXX_Write_Enable
    w25qxx.o(i.W25QXX_Erase_Chip) refers to w25qxx.o(i.W25QXX_Wait_Busy) for W25QXX_Wait_Busy
    w25qxx.o(i.W25QXX_Erase_Chip) refers to spi.o(i.SPI2_ReadWriteByte) for SPI2_ReadWriteByte
    w25qxx.o(i.W25QXX_Erase_Sector) refers to _printf_percent.o(.ARM.Collect$$_printf_percent$$00000000) for _printf_percent
    w25qxx.o(i.W25QXX_Erase_Sector) refers to _printf_x.o(.ARM.Collect$$_printf_percent$$0000000C) for _printf_x
    w25qxx.o(i.W25QXX_Erase_Sector) refers to _printf_hex_int.o(.text) for _printf_longlong_hex
    w25qxx.o(i.W25QXX_Erase_Sector) refers to noretval__2printf.o(.text) for __2printf
    w25qxx.o(i.W25QXX_Erase_Sector) refers to w25qxx.o(i.W25QXX_Write_Enable) for W25QXX_Write_Enable
    w25qxx.o(i.W25QXX_Erase_Sector) refers to w25qxx.o(i.W25QXX_Wait_Busy) for W25QXX_Wait_Busy
    w25qxx.o(i.W25QXX_Erase_Sector) refers to spi.o(i.SPI2_ReadWriteByte) for SPI2_ReadWriteByte
    w25qxx.o(i.W25QXX_Init) refers to spi.o(i.SPI2_Init) for SPI2_Init
    w25qxx.o(i.W25QXX_Init) refers to spi.o(i.SPI2_SetSpeed) for SPI2_SetSpeed
    w25qxx.o(i.W25QXX_Init) refers to w25qxx.o(i.W25QXX_ReadID) for W25QXX_ReadID
    w25qxx.o(i.W25QXX_Init) refers to w25qxx.o(.data) for W25QXX_TYPE
    w25qxx.o(i.W25QXX_PowerDown) refers to spi.o(i.SPI2_ReadWriteByte) for SPI2_ReadWriteByte
    w25qxx.o(i.W25QXX_PowerDown) refers to delay.o(i.delay_us) for delay_us
    w25qxx.o(i.W25QXX_Read) refers to spi.o(i.SPI2_ReadWriteByte) for SPI2_ReadWriteByte
    w25qxx.o(i.W25QXX_ReadID) refers to spi.o(i.SPI2_ReadWriteByte) for SPI2_ReadWriteByte
    w25qxx.o(i.W25QXX_ReadSR) refers to spi.o(i.SPI2_ReadWriteByte) for SPI2_ReadWriteByte
    w25qxx.o(i.W25QXX_WAKEUP) refers to spi.o(i.SPI2_ReadWriteByte) for SPI2_ReadWriteByte
    w25qxx.o(i.W25QXX_WAKEUP) refers to delay.o(i.delay_us) for delay_us
    w25qxx.o(i.W25QXX_Wait_Busy) refers to w25qxx.o(i.W25QXX_ReadSR) for W25QXX_ReadSR
    w25qxx.o(i.W25QXX_Write) refers to w25qxx.o(i.W25QXX_Read) for W25QXX_Read
    w25qxx.o(i.W25QXX_Write) refers to w25qxx.o(i.W25QXX_Erase_Sector) for W25QXX_Erase_Sector
    w25qxx.o(i.W25QXX_Write) refers to w25qxx.o(i.W25QXX_Write_NoCheck) for W25QXX_Write_NoCheck
    w25qxx.o(i.W25QXX_Write) refers to w25qxx.o(.bss) for W25QXX_BUFFER
    w25qxx.o(i.W25QXX_Write_Disable) refers to spi.o(i.SPI2_ReadWriteByte) for SPI2_ReadWriteByte
    w25qxx.o(i.W25QXX_Write_Enable) refers to spi.o(i.SPI2_ReadWriteByte) for SPI2_ReadWriteByte
    w25qxx.o(i.W25QXX_Write_NoCheck) refers to w25qxx.o(i.W25QXX_Write_Page) for W25QXX_Write_Page
    w25qxx.o(i.W25QXX_Write_Page) refers to w25qxx.o(i.W25QXX_Write_Enable) for W25QXX_Write_Enable
    w25qxx.o(i.W25QXX_Write_Page) refers to spi.o(i.SPI2_ReadWriteByte) for SPI2_ReadWriteByte
    w25qxx.o(i.W25QXX_Write_Page) refers to w25qxx.o(i.W25QXX_Wait_Busy) for W25QXX_Wait_Busy
    w25qxx.o(i.W25QXX_Write_SR) refers to spi.o(i.SPI2_ReadWriteByte) for SPI2_ReadWriteByte
    myiic.o(i.IIC_Ack) refers to delay.o(i.delay_us) for delay_us
    myiic.o(i.IIC_NAck) refers to delay.o(i.delay_us) for delay_us
    myiic.o(i.IIC_Read_Byte) refers to delay.o(i.delay_us) for delay_us
    myiic.o(i.IIC_Read_Byte) refers to myiic.o(i.IIC_NAck) for IIC_NAck
    myiic.o(i.IIC_Read_Byte) refers to myiic.o(i.IIC_Ack) for IIC_Ack
    myiic.o(i.IIC_Send_Byte) refers to delay.o(i.delay_us) for delay_us
    myiic.o(i.IIC_Start) refers to delay.o(i.delay_us) for delay_us
    myiic.o(i.IIC_Stop) refers to delay.o(i.delay_us) for delay_us
    myiic.o(i.IIC_Wait_Ack) refers to delay.o(i.delay_us) for delay_us
    myiic.o(i.IIC_Wait_Ack) refers to myiic.o(i.IIC_Stop) for IIC_Stop
    24cxx.o(i.AT24CXX_Check) refers to 24cxx.o(i.AT24CXX_ReadOneByte) for AT24CXX_ReadOneByte
    24cxx.o(i.AT24CXX_Check) refers to 24cxx.o(i.AT24CXX_WriteOneByte) for AT24CXX_WriteOneByte
    24cxx.o(i.AT24CXX_Init) refers to myiic.o(i.IIC_Init) for IIC_Init
    24cxx.o(i.AT24CXX_Read) refers to 24cxx.o(i.AT24CXX_ReadOneByte) for AT24CXX_ReadOneByte
    24cxx.o(i.AT24CXX_ReadOneByte) refers to myiic.o(i.IIC_Start) for IIC_Start
    24cxx.o(i.AT24CXX_ReadOneByte) refers to myiic.o(i.IIC_Send_Byte) for IIC_Send_Byte
    24cxx.o(i.AT24CXX_ReadOneByte) refers to myiic.o(i.IIC_Wait_Ack) for IIC_Wait_Ack
    24cxx.o(i.AT24CXX_ReadOneByte) refers to myiic.o(i.IIC_Read_Byte) for IIC_Read_Byte
    24cxx.o(i.AT24CXX_ReadOneByte) refers to myiic.o(i.IIC_Stop) for IIC_Stop
    24cxx.o(i.AT24CXX_Write) refers to 24cxx.o(i.AT24CXX_WriteOneByte) for AT24CXX_WriteOneByte
    24cxx.o(i.AT24CXX_WriteOneByte) refers to myiic.o(i.IIC_Start) for IIC_Start
    24cxx.o(i.AT24CXX_WriteOneByte) refers to myiic.o(i.IIC_Send_Byte) for IIC_Send_Byte
    24cxx.o(i.AT24CXX_WriteOneByte) refers to myiic.o(i.IIC_Wait_Ack) for IIC_Wait_Ack
    24cxx.o(i.AT24CXX_WriteOneByte) refers to myiic.o(i.IIC_Stop) for IIC_Stop
    24cxx.o(i.AT24CXX_WriteOneByte) refers to delay.o(i.delay_ms) for delay_ms
    ctiic.o(i.CT_Delay) refers to delay.o(i.delay_us) for delay_us
    ctiic.o(i.CT_IIC_Ack) refers to ctiic.o(i.CT_Delay) for CT_Delay
    ctiic.o(i.CT_IIC_NAck) refers to ctiic.o(i.CT_Delay) for CT_Delay
    ctiic.o(i.CT_IIC_Read_Byte) refers to delay.o(i.delay_us) for delay_us
    ctiic.o(i.CT_IIC_Read_Byte) refers to ctiic.o(i.CT_Delay) for CT_Delay
    ctiic.o(i.CT_IIC_Read_Byte) refers to ctiic.o(i.CT_IIC_NAck) for CT_IIC_NAck
    ctiic.o(i.CT_IIC_Read_Byte) refers to ctiic.o(i.CT_IIC_Ack) for CT_IIC_Ack
    ctiic.o(i.CT_IIC_Send_Byte) refers to ctiic.o(i.CT_Delay) for CT_Delay
    ctiic.o(i.CT_IIC_Start) refers to delay.o(i.delay_us) for delay_us
    ctiic.o(i.CT_IIC_Start) refers to ctiic.o(i.CT_Delay) for CT_Delay
    ctiic.o(i.CT_IIC_Stop) refers to delay.o(i.delay_us) for delay_us
    ctiic.o(i.CT_IIC_Stop) refers to ctiic.o(i.CT_Delay) for CT_Delay
    ctiic.o(i.CT_IIC_Wait_Ack) refers to ctiic.o(i.CT_Delay) for CT_Delay
    ctiic.o(i.CT_IIC_Wait_Ack) refers to ctiic.o(i.CT_IIC_Stop) for CT_IIC_Stop
    ft5206.o(i.FT5206_Init) refers to _printf_percent.o(.ARM.Collect$$_printf_percent$$00000000) for _printf_percent
    ft5206.o(i.FT5206_Init) refers to _printf_x.o(.ARM.Collect$$_printf_percent$$0000000C) for _printf_x
    ft5206.o(i.FT5206_Init) refers to _printf_hex_int.o(.text) for _printf_longlong_hex
    ft5206.o(i.FT5206_Init) refers to ctiic.o(i.CT_IIC_Init) for CT_IIC_Init
    ft5206.o(i.FT5206_Init) refers to delay.o(i.delay_ms) for delay_ms
    ft5206.o(i.FT5206_Init) refers to ft5206.o(i.FT5206_WR_Reg) for FT5206_WR_Reg
    ft5206.o(i.FT5206_Init) refers to ft5206.o(i.FT5206_RD_Reg) for FT5206_RD_Reg
    ft5206.o(i.FT5206_Init) refers to noretval__2printf.o(.text) for __2printf
    ft5206.o(i.FT5206_RD_Reg) refers to ctiic.o(i.CT_IIC_Start) for CT_IIC_Start
    ft5206.o(i.FT5206_RD_Reg) refers to ctiic.o(i.CT_IIC_Send_Byte) for CT_IIC_Send_Byte
    ft5206.o(i.FT5206_RD_Reg) refers to ctiic.o(i.CT_IIC_Wait_Ack) for CT_IIC_Wait_Ack
    ft5206.o(i.FT5206_RD_Reg) refers to ctiic.o(i.CT_IIC_Read_Byte) for CT_IIC_Read_Byte
    ft5206.o(i.FT5206_RD_Reg) refers to ctiic.o(i.CT_IIC_Stop) for CT_IIC_Stop
    ft5206.o(i.FT5206_Scan) refers to ft5206.o(i.FT5206_RD_Reg) for FT5206_RD_Reg
    ft5206.o(i.FT5206_Scan) refers to ft5206.o(.data) for t
    ft5206.o(i.FT5206_Scan) refers to touch.o(.data) for tp_dev
    ft5206.o(i.FT5206_Scan) refers to ft5206.o(.constdata) for FT5206_TPX_TBL
    ft5206.o(i.FT5206_WR_Reg) refers to ctiic.o(i.CT_IIC_Start) for CT_IIC_Start
    ft5206.o(i.FT5206_WR_Reg) refers to ctiic.o(i.CT_IIC_Send_Byte) for CT_IIC_Send_Byte
    ft5206.o(i.FT5206_WR_Reg) refers to ctiic.o(i.CT_IIC_Wait_Ack) for CT_IIC_Wait_Ack
    ft5206.o(i.FT5206_WR_Reg) refers to ctiic.o(i.CT_IIC_Stop) for CT_IIC_Stop
    gt9147.o(i.GT9147_Init) refers to _printf_percent.o(.ARM.Collect$$_printf_percent$$00000000) for _printf_percent
    gt9147.o(i.GT9147_Init) refers to _printf_s.o(.ARM.Collect$$_printf_percent$$00000014) for _printf_s
    gt9147.o(i.GT9147_Init) refers to _printf_str.o(.text) for _printf_str
    gt9147.o(i.GT9147_Init) refers to _printf_d.o(.ARM.Collect$$_printf_percent$$00000009) for _printf_d
    gt9147.o(i.GT9147_Init) refers to _printf_dec.o(.text) for _printf_int_dec
    gt9147.o(i.GT9147_Init) refers to ctiic.o(i.CT_IIC_Init) for CT_IIC_Init
    gt9147.o(i.GT9147_Init) refers to delay.o(i.delay_ms) for delay_ms
    gt9147.o(i.GT9147_Init) refers to gt9147.o(i.GT9147_RD_Reg) for GT9147_RD_Reg
    gt9147.o(i.GT9147_Init) refers to noretval__2printf.o(.text) for __2printf
    gt9147.o(i.GT9147_Init) refers to strcmpv7m.o(.text) for strcmp
    gt9147.o(i.GT9147_Init) refers to gt9147.o(i.GT9147_WR_Reg) for GT9147_WR_Reg
    gt9147.o(i.GT9147_Init) refers to gt9147.o(i.GT9147_Send_Cfg) for GT9147_Send_Cfg
    gt9147.o(i.GT9147_RD_Reg) refers to ctiic.o(i.CT_IIC_Start) for CT_IIC_Start
    gt9147.o(i.GT9147_RD_Reg) refers to ctiic.o(i.CT_IIC_Send_Byte) for CT_IIC_Send_Byte
    gt9147.o(i.GT9147_RD_Reg) refers to ctiic.o(i.CT_IIC_Wait_Ack) for CT_IIC_Wait_Ack
    gt9147.o(i.GT9147_RD_Reg) refers to ctiic.o(i.CT_IIC_Read_Byte) for CT_IIC_Read_Byte
    gt9147.o(i.GT9147_RD_Reg) refers to ctiic.o(i.CT_IIC_Stop) for CT_IIC_Stop
    gt9147.o(i.GT9147_Scan) refers to gt9147.o(i.GT9147_RD_Reg) for GT9147_RD_Reg
    gt9147.o(i.GT9147_Scan) refers to gt9147.o(i.GT9147_WR_Reg) for GT9147_WR_Reg
    gt9147.o(i.GT9147_Scan) refers to gt9147.o(.data) for t
    gt9147.o(i.GT9147_Scan) refers to touch.o(.data) for tp_dev
    gt9147.o(i.GT9147_Scan) refers to gt9147.o(.constdata) for GT9147_TPX_TBL
    gt9147.o(i.GT9147_Scan) refers to ili93xx.o(.bss) for lcddev
    gt9147.o(i.GT9147_Send_Cfg) refers to gt9147.o(i.GT9147_WR_Reg) for GT9147_WR_Reg
    gt9147.o(i.GT9147_Send_Cfg) refers to gt9147.o(.constdata) for GT9147_CFG_TBL
    gt9147.o(i.GT9147_WR_Reg) refers to ctiic.o(i.CT_IIC_Start) for CT_IIC_Start
    gt9147.o(i.GT9147_WR_Reg) refers to ctiic.o(i.CT_IIC_Send_Byte) for CT_IIC_Send_Byte
    gt9147.o(i.GT9147_WR_Reg) refers to ctiic.o(i.CT_IIC_Wait_Ack) for CT_IIC_Wait_Ack
    gt9147.o(i.GT9147_WR_Reg) refers to ctiic.o(i.CT_IIC_Stop) for CT_IIC_Stop
    ott2001a.o(i.OTT2001A_Init) refers to _printf_percent.o(.ARM.Collect$$_printf_percent$$00000000) for _printf_percent
    ott2001a.o(i.OTT2001A_Init) refers to _printf_x.o(.ARM.Collect$$_printf_percent$$0000000C) for _printf_x
    ott2001a.o(i.OTT2001A_Init) refers to _printf_hex_int.o(.text) for _printf_longlong_hex
    ott2001a.o(i.OTT2001A_Init) refers to ctiic.o(i.CT_IIC_Init) for CT_IIC_Init
    ott2001a.o(i.OTT2001A_Init) refers to delay.o(i.delay_ms) for delay_ms
    ott2001a.o(i.OTT2001A_Init) refers to ott2001a.o(i.OTT2001A_SensorControl) for OTT2001A_SensorControl
    ott2001a.o(i.OTT2001A_Init) refers to ott2001a.o(i.OTT2001A_RD_Reg) for OTT2001A_RD_Reg
    ott2001a.o(i.OTT2001A_Init) refers to noretval__2printf.o(.text) for __2printf
    ott2001a.o(i.OTT2001A_RD_Reg) refers to ctiic.o(i.CT_IIC_Start) for CT_IIC_Start
    ott2001a.o(i.OTT2001A_RD_Reg) refers to ctiic.o(i.CT_IIC_Send_Byte) for CT_IIC_Send_Byte
    ott2001a.o(i.OTT2001A_RD_Reg) refers to ctiic.o(i.CT_IIC_Wait_Ack) for CT_IIC_Wait_Ack
    ott2001a.o(i.OTT2001A_RD_Reg) refers to ctiic.o(i.CT_IIC_Read_Byte) for CT_IIC_Read_Byte
    ott2001a.o(i.OTT2001A_RD_Reg) refers to ctiic.o(i.CT_IIC_Stop) for CT_IIC_Stop
    ott2001a.o(i.OTT2001A_Scan) refers to ott2001a.o(i.OTT2001A_RD_Reg) for OTT2001A_RD_Reg
    ott2001a.o(i.OTT2001A_Scan) refers to dflt_clz.o(x$fpl$dflt) for __aeabi_i2d
    ott2001a.o(i.OTT2001A_Scan) refers to dmul.o(x$fpl$dmul) for __aeabi_dmul
    ott2001a.o(i.OTT2001A_Scan) refers to dfixu.o(x$fpl$dfixu) for __aeabi_d2uiz
    ott2001a.o(i.OTT2001A_Scan) refers to daddsub_clz.o(x$fpl$drsb) for __aeabi_drsub
    ott2001a.o(i.OTT2001A_Scan) refers to ott2001a.o(.data) for t
    ott2001a.o(i.OTT2001A_Scan) refers to touch.o(.data) for tp_dev
    ott2001a.o(i.OTT2001A_Scan) refers to ott2001a.o(.constdata) for OTT_TPX_TBL
    ott2001a.o(i.OTT2001A_SensorControl) refers to ott2001a.o(i.OTT2001A_WR_Reg) for OTT2001A_WR_Reg
    ott2001a.o(i.OTT2001A_WR_Reg) refers to ctiic.o(i.CT_IIC_Start) for CT_IIC_Start
    ott2001a.o(i.OTT2001A_WR_Reg) refers to ctiic.o(i.CT_IIC_Send_Byte) for CT_IIC_Send_Byte
    ott2001a.o(i.OTT2001A_WR_Reg) refers to ctiic.o(i.CT_IIC_Wait_Ack) for CT_IIC_Wait_Ack
    ott2001a.o(i.OTT2001A_WR_Reg) refers to ctiic.o(i.CT_IIC_Stop) for CT_IIC_Stop
    touch.o(i.TP_Adj_Info_Show) refers to ili93xx.o(i.LCD_ShowString) for LCD_ShowString
    touch.o(i.TP_Adj_Info_Show) refers to ili93xx.o(i.LCD_ShowNum) for LCD_ShowNum
    touch.o(i.TP_Adj_Info_Show) refers to ili93xx.o(.data) for POINT_COLOR
    touch.o(i.TP_Adj_Info_Show) refers to ili93xx.o(.bss) for lcddev
    touch.o(i.TP_Adjust) refers to ili93xx.o(i.LCD_Clear) for LCD_Clear
    touch.o(i.TP_Adjust) refers to ili93xx.o(i.LCD_ShowString) for LCD_ShowString
    touch.o(i.TP_Adjust) refers to touch.o(i.TP_Drow_Touch_Point) for TP_Drow_Touch_Point
    touch.o(i.TP_Adjust) refers to dflt_clz.o(x$fpl$dfltu) for __aeabi_ui2d
    touch.o(i.TP_Adjust) refers to sqrt.o(i.sqrt) for sqrt
    touch.o(i.TP_Adjust) refers to dfixu.o(x$fpl$dfixu) for __aeabi_d2uiz
    touch.o(i.TP_Adjust) refers to fflt_clz.o(x$fpl$ffltu) for __aeabi_ui2f
    touch.o(i.TP_Adjust) refers to fdiv.o(x$fpl$fdiv) for __aeabi_fdiv
    touch.o(i.TP_Adjust) refers to f2d.o(x$fpl$f2d) for __aeabi_f2d
    touch.o(i.TP_Adjust) refers to dleqf.o(x$fpl$dleqf) for __aeabi_cdcmple
    touch.o(i.TP_Adjust) refers to drleqf.o(x$fpl$drleqf) for __aeabi_cdrcmple
    touch.o(i.TP_Adjust) refers to dmul.o(x$fpl$dmul) for __aeabi_dmul
    touch.o(i.TP_Adjust) refers to touch.o(i.TP_Adj_Info_Show) for TP_Adj_Info_Show
    touch.o(i.TP_Adjust) refers to ili93xx.o(.data) for POINT_COLOR
    touch.o(i.TP_Adjust) refers to touch.o(.constdata) for TP_REMIND_MSG_TBL
    touch.o(i.TP_Adjust) refers to touch.o(.data) for tp_dev
    touch.o(i.TP_Adjust) refers to ili93xx.o(.bss) for lcddev
    touch.o(i.TP_Adjust) refers to fflt_clz.o(x$fpl$fflt) for __aeabi_i2f
    touch.o(i.TP_Adjust) refers to fmul.o(x$fpl$fmul) for __aeabi_fmul
    touch.o(i.TP_Adjust) refers to faddsub_clz.o(x$fpl$fsub) for __aeabi_fsub
    touch.o(i.TP_Adjust) refers to ffix.o(x$fpl$ffix) for __aeabi_f2iz
    touch.o(i.TP_Adjust) refers to delay.o(i.delay_ms) for delay_ms
    touch.o(i.TP_Adjust) refers to touch.o(i.TP_Save_Adjdata) for TP_Save_Adjdata
    touch.o(i.TP_Adjust) refers to touch.o(i.TP_Get_Adjdata) for TP_Get_Adjdata
    touch.o(i.TP_Draw_Big_Point) refers to ili93xx.o(i.LCD_DrawPoint) for LCD_DrawPoint
    touch.o(i.TP_Draw_Big_Point) refers to ili93xx.o(.data) for POINT_COLOR
    touch.o(i.TP_Drow_Touch_Point) refers to ili93xx.o(i.LCD_DrawLine) for LCD_DrawLine
    touch.o(i.TP_Drow_Touch_Point) refers to ili93xx.o(i.LCD_DrawPoint) for LCD_DrawPoint
    touch.o(i.TP_Drow_Touch_Point) refers to ili93xx.o(i.LCD_Draw_Circle) for LCD_Draw_Circle
    touch.o(i.TP_Drow_Touch_Point) refers to ili93xx.o(.data) for POINT_COLOR
    touch.o(i.TP_Get_Adjdata) refers to 24cxx.o(i.AT24CXX_ReadOneByte) for AT24CXX_ReadOneByte
    touch.o(i.TP_Get_Adjdata) refers to 24cxx.o(i.AT24CXX_Read) for AT24CXX_Read
    touch.o(i.TP_Get_Adjdata) refers to touch.o(.data) for tp_dev
    touch.o(i.TP_Init) refers to gt9147.o(i.GT9147_Init) for GT9147_Init
    touch.o(i.TP_Init) refers to ott2001a.o(i.OTT2001A_Init) for OTT2001A_Init
    touch.o(i.TP_Init) refers to ft5206.o(i.FT5206_Init) for FT5206_Init
    touch.o(i.TP_Init) refers to touch.o(i.TP_Read_XY) for TP_Read_XY
    touch.o(i.TP_Init) refers to 24cxx.o(i.AT24CXX_Init) for AT24CXX_Init
    touch.o(i.TP_Init) refers to touch.o(i.TP_Get_Adjdata) for TP_Get_Adjdata
    touch.o(i.TP_Init) refers to ili93xx.o(i.LCD_Clear) for LCD_Clear
    touch.o(i.TP_Init) refers to touch.o(i.TP_Adjust) for TP_Adjust
    touch.o(i.TP_Init) refers to ili93xx.o(.bss) for lcddev
    touch.o(i.TP_Init) refers to gt9147.o(i.GT9147_Scan) for GT9147_Scan
    touch.o(i.TP_Init) refers to touch.o(.data) for tp_dev
    touch.o(i.TP_Init) refers to ott2001a.o(i.OTT2001A_Scan) for OTT2001A_Scan
    touch.o(i.TP_Init) refers to ft5206.o(i.FT5206_Scan) for FT5206_Scan
    touch.o(i.TP_Read_AD) refers to touch.o(i.TP_Write_Byte) for TP_Write_Byte
    touch.o(i.TP_Read_AD) refers to delay.o(i.delay_us) for delay_us
    touch.o(i.TP_Read_XOY) refers to touch.o(i.TP_Read_AD) for TP_Read_AD
    touch.o(i.TP_Read_XY) refers to touch.o(i.TP_Read_XOY) for TP_Read_XOY
    touch.o(i.TP_Read_XY) refers to touch.o(.data) for CMD_RDX
    touch.o(i.TP_Read_XY2) refers to touch.o(i.TP_Read_XY) for TP_Read_XY
    touch.o(i.TP_Save_Adjdata) refers to 24cxx.o(i.AT24CXX_Write) for AT24CXX_Write
    touch.o(i.TP_Save_Adjdata) refers to 24cxx.o(i.AT24CXX_WriteOneByte) for AT24CXX_WriteOneByte
    touch.o(i.TP_Save_Adjdata) refers to touch.o(.data) for tp_dev
    touch.o(i.TP_Scan) refers to touch.o(i.TP_Read_XY2) for TP_Read_XY2
    touch.o(i.TP_Scan) refers to fflt_clz.o(x$fpl$fflt) for __aeabi_i2f
    touch.o(i.TP_Scan) refers to fflt_clz.o(x$fpl$ffltu) for __aeabi_ui2f
    touch.o(i.TP_Scan) refers to fmul.o(x$fpl$fmul) for __aeabi_fmul
    touch.o(i.TP_Scan) refers to faddsub_clz.o(x$fpl$fadd) for __aeabi_fadd
    touch.o(i.TP_Scan) refers to ffixu.o(x$fpl$ffixu) for __aeabi_f2uiz
    touch.o(i.TP_Scan) refers to touch.o(.data) for tp_dev
    touch.o(i.TP_Write_Byte) refers to delay.o(i.delay_us) for delay_us
    touch.o(.constdata) refers to touch.o(.conststring) for .conststring
    touch.o(.data) refers to touch.o(i.TP_Init) for TP_Init
    touch.o(.data) refers to touch.o(i.TP_Scan) for TP_Scan
    touch.o(.data) refers to touch.o(i.TP_Adjust) for TP_Adjust
    malloc.o(i.my_mem_free) refers to malloc.o(.data) for mallco_dev
    malloc.o(i.my_mem_free) refers to malloc.o(.constdata) for memsize
    malloc.o(i.my_mem_init) refers to malloc.o(i.mymemset) for mymemset
    malloc.o(i.my_mem_init) refers to malloc.o(.constdata) for memtblsize
    malloc.o(i.my_mem_init) refers to malloc.o(.data) for mallco_dev
    malloc.o(i.my_mem_malloc) refers to malloc.o(.data) for mallco_dev
    malloc.o(i.my_mem_malloc) refers to malloc.o(.constdata) for memblksize
    malloc.o(i.my_mem_perused) refers to malloc.o(.data) for mallco_dev
    malloc.o(i.my_mem_perused) refers to malloc.o(.constdata) for memtblsize
    malloc.o(i.myfree) refers to malloc.o(i.my_mem_free) for my_mem_free
    malloc.o(i.myfree) refers to malloc.o(.data) for mallco_dev
    malloc.o(i.mymalloc) refers to malloc.o(i.my_mem_malloc) for my_mem_malloc
    malloc.o(i.mymalloc) refers to malloc.o(.data) for mallco_dev
    malloc.o(i.myrealloc) refers to malloc.o(i.my_mem_malloc) for my_mem_malloc
    malloc.o(i.myrealloc) refers to malloc.o(i.mymemcpy) for mymemcpy
    malloc.o(i.myrealloc) refers to malloc.o(i.myfree) for myfree
    malloc.o(i.myrealloc) refers to malloc.o(.data) for mallco_dev
    malloc.o(.data) refers to malloc.o(i.my_mem_init) for my_mem_init
    malloc.o(.data) refers to malloc.o(i.my_mem_perused) for my_mem_perused
    malloc.o(.data) refers to malloc.o(.bss) for mem1base
    malloc.o(.data) refers to malloc.o(.ARM.__AT_0x68000000) for mem2base
    malloc.o(.data) refers to malloc.o(.ARM.__AT_0x680F0000) for mem2mapbase
    diskio.o(i.disk_initialize) refers to sdio_sdcard.o(i.SD_Init) for SD_Init
    diskio.o(i.disk_initialize) refers to w25qxx.o(i.W25QXX_Init) for W25QXX_Init
    diskio.o(i.disk_initialize) refers to diskio.o(.data) for FLASH_SECTOR_COUNT
    diskio.o(i.disk_ioctl) refers to llsdiv.o(.text) for __aeabi_ldivmod
    diskio.o(i.disk_ioctl) refers to sdio_sdcard.o(.bss) for SDCardInfo
    diskio.o(i.disk_ioctl) refers to diskio.o(.data) for FLASH_SECTOR_COUNT
    diskio.o(i.disk_read) refers to sdio_sdcard.o(i.SD_ReadDisk) for SD_ReadDisk
    diskio.o(i.disk_read) refers to sdio_sdcard.o(i.SD_Init) for SD_Init
    diskio.o(i.disk_read) refers to w25qxx.o(i.W25QXX_Read) for W25QXX_Read
    diskio.o(i.disk_write) refers to sdio_sdcard.o(i.SD_WriteDisk) for SD_WriteDisk
    diskio.o(i.disk_write) refers to sdio_sdcard.o(i.SD_Init) for SD_Init
    diskio.o(i.disk_write) refers to w25qxx.o(i.W25QXX_Write) for W25QXX_Write
    diskio.o(i.ff_memalloc) refers to malloc.o(i.mymalloc) for mymalloc
    diskio.o(i.ff_memfree) refers to malloc.o(i.myfree) for myfree
    ff.o(i.check_fs) refers to ff.o(i.move_window) for move_window
    ff.o(i.cmp_lfn) refers to mycc936.o(i.ff_wtoupper) for ff_wtoupper
    ff.o(i.cmp_lfn) refers to ff.o(.constdata) for LfnOfs
    ff.o(i.create_chain) refers to ff.o(i.get_fat) for get_fat
    ff.o(i.create_chain) refers to ff.o(i.put_fat) for put_fat
    ff.o(i.create_name) refers to mycc936.o(i.ff_convert) for ff_convert
    ff.o(i.create_name) refers to ff.o(i.chk_chr) for chk_chr
    ff.o(i.create_name) refers to ff.o(i.mem_set) for mem_set
    ff.o(i.create_name) refers to mycc936.o(i.ff_wtoupper) for ff_wtoupper
    ff.o(i.dir_alloc) refers to ff.o(i.dir_sdi) for dir_sdi
    ff.o(i.dir_alloc) refers to ff.o(i.move_window) for move_window
    ff.o(i.dir_alloc) refers to ff.o(i.dir_next) for dir_next
    ff.o(i.dir_find) refers to ff.o(i.dir_sdi) for dir_sdi
    ff.o(i.dir_find) refers to ff.o(i.move_window) for move_window
    ff.o(i.dir_find) refers to ff.o(i.cmp_lfn) for cmp_lfn
    ff.o(i.dir_find) refers to ff.o(i.sum_sfn) for sum_sfn
    ff.o(i.dir_find) refers to ff.o(i.mem_cmp) for mem_cmp
    ff.o(i.dir_find) refers to ff.o(i.dir_next) for dir_next
    ff.o(i.dir_next) refers to ff.o(i.get_fat) for get_fat
    ff.o(i.dir_next) refers to ff.o(i.create_chain) for create_chain
    ff.o(i.dir_next) refers to ff.o(i.sync_window) for sync_window
    ff.o(i.dir_next) refers to ff.o(i.mem_set) for mem_set
    ff.o(i.dir_next) refers to ff.o(i.clust2sect) for clust2sect
    ff.o(i.dir_read) refers to ff.o(i.move_window) for move_window
    ff.o(i.dir_read) refers to ff.o(i.pick_lfn) for pick_lfn
    ff.o(i.dir_read) refers to ff.o(i.sum_sfn) for sum_sfn
    ff.o(i.dir_read) refers to ff.o(i.dir_next) for dir_next
    ff.o(i.dir_register) refers to ff.o(i.mem_cpy) for mem_cpy
    ff.o(i.dir_register) refers to ff.o(i.gen_numname) for gen_numname
    ff.o(i.dir_register) refers to ff.o(i.dir_find) for dir_find
    ff.o(i.dir_register) refers to ff.o(i.dir_alloc) for dir_alloc
    ff.o(i.dir_register) refers to ff.o(i.dir_sdi) for dir_sdi
    ff.o(i.dir_register) refers to ff.o(i.sum_sfn) for sum_sfn
    ff.o(i.dir_register) refers to ff.o(i.move_window) for move_window
    ff.o(i.dir_register) refers to ff.o(i.fit_lfn) for fit_lfn
    ff.o(i.dir_register) refers to ff.o(i.dir_next) for dir_next
    ff.o(i.dir_register) refers to ff.o(i.mem_set) for mem_set
    ff.o(i.dir_remove) refers to ff.o(i.dir_sdi) for dir_sdi
    ff.o(i.dir_remove) refers to ff.o(i.move_window) for move_window
    ff.o(i.dir_remove) refers to ff.o(i.mem_set) for mem_set
    ff.o(i.dir_remove) refers to ff.o(i.dir_next) for dir_next
    ff.o(i.dir_sdi) refers to ff.o(i.get_fat) for get_fat
    ff.o(i.dir_sdi) refers to ff.o(i.clust2sect) for clust2sect
    ff.o(i.f_chmod) refers to ff.o(i.find_volume) for find_volume
    ff.o(i.f_chmod) refers to diskio.o(i.ff_memalloc) for ff_memalloc
    ff.o(i.f_chmod) refers to ff.o(i.follow_path) for follow_path
    ff.o(i.f_chmod) refers to diskio.o(i.ff_memfree) for ff_memfree
    ff.o(i.f_chmod) refers to ff.o(i.sync_fs) for sync_fs
    ff.o(i.f_close) refers to ff.o(i.f_sync) for f_sync
    ff.o(i.f_close) refers to ff.o(i.validate) for validate
    ff.o(i.f_closedir) refers to ff.o(i.validate) for validate
    ff.o(i.f_getfree) refers to ff.o(i.find_volume) for find_volume
    ff.o(i.f_getfree) refers to ff.o(i.get_fat) for get_fat
    ff.o(i.f_getfree) refers to ff.o(i.move_window) for move_window
    ff.o(i.f_getlabel) refers to ff.o(i.find_volume) for find_volume
    ff.o(i.f_getlabel) refers to ff.o(i.dir_sdi) for dir_sdi
    ff.o(i.f_getlabel) refers to ff.o(i.dir_read) for dir_read
    ff.o(i.f_getlabel) refers to ff.o(i.mem_cpy) for mem_cpy
    ff.o(i.f_getlabel) refers to ff.o(i.move_window) for move_window
    ff.o(i.f_gets) refers to ff.o(i.f_read) for f_read
    ff.o(i.f_lseek) refers to ff.o(i.validate) for validate
    ff.o(i.f_lseek) refers to ff.o(i.get_fat) for get_fat
    ff.o(i.f_lseek) refers to ff.o(i.clmt_clust) for clmt_clust
    ff.o(i.f_lseek) refers to ff.o(i.clust2sect) for clust2sect
    ff.o(i.f_lseek) refers to diskio.o(i.disk_write) for disk_write
    ff.o(i.f_lseek) refers to diskio.o(i.disk_read) for disk_read
    ff.o(i.f_lseek) refers to ff.o(i.create_chain) for create_chain
    ff.o(i.f_mkdir) refers to diskio.o(i.get_fattime) for get_fattime
    ff.o(i.f_mkdir) refers to ff.o(i.find_volume) for find_volume
    ff.o(i.f_mkdir) refers to diskio.o(i.ff_memalloc) for ff_memalloc
    ff.o(i.f_mkdir) refers to ff.o(i.follow_path) for follow_path
    ff.o(i.f_mkdir) refers to ff.o(i.create_chain) for create_chain
    ff.o(i.f_mkdir) refers to ff.o(i.sync_window) for sync_window
    ff.o(i.f_mkdir) refers to ff.o(i.clust2sect) for clust2sect
    ff.o(i.f_mkdir) refers to ff.o(i.mem_set) for mem_set
    ff.o(i.f_mkdir) refers to ff.o(i.st_clust) for st_clust
    ff.o(i.f_mkdir) refers to ff.o(i.mem_cpy) for mem_cpy
    ff.o(i.f_mkdir) refers to ff.o(i.dir_register) for dir_register
    ff.o(i.f_mkdir) refers to ff.o(i.remove_chain) for remove_chain
    ff.o(i.f_mkdir) refers to ff.o(i.sync_fs) for sync_fs
    ff.o(i.f_mkdir) refers to diskio.o(i.ff_memfree) for ff_memfree
    ff.o(i.f_mkfs) refers to ff.o(i.get_ldnumber) for get_ldnumber
    ff.o(i.f_mkfs) refers to diskio.o(i.disk_initialize) for disk_initialize
    ff.o(i.f_mkfs) refers to diskio.o(i.disk_ioctl) for disk_ioctl
    ff.o(i.f_mkfs) refers to ff.o(i.mem_set) for mem_set
    ff.o(i.f_mkfs) refers to diskio.o(i.disk_write) for disk_write
    ff.o(i.f_mkfs) refers to ff.o(i.mem_cpy) for mem_cpy
    ff.o(i.f_mkfs) refers to diskio.o(i.get_fattime) for get_fattime
    ff.o(i.f_mkfs) refers to ff.o(.data) for FatFs
    ff.o(i.f_mkfs) refers to ff.o(.constdata) for vst
    ff.o(i.f_mount) refers to ff.o(i.get_ldnumber) for get_ldnumber
    ff.o(i.f_mount) refers to ff.o(i.find_volume) for find_volume
    ff.o(i.f_mount) refers to ff.o(.data) for FatFs
    ff.o(i.f_open) refers to ff.o(i.find_volume) for find_volume
    ff.o(i.f_open) refers to diskio.o(i.ff_memalloc) for ff_memalloc
    ff.o(i.f_open) refers to ff.o(i.follow_path) for follow_path
    ff.o(i.f_open) refers to ff.o(i.dir_register) for dir_register
    ff.o(i.f_open) refers to diskio.o(i.get_fattime) for get_fattime
    ff.o(i.f_open) refers to ff.o(i.ld_clust) for ld_clust
    ff.o(i.f_open) refers to ff.o(i.st_clust) for st_clust
    ff.o(i.f_open) refers to ff.o(i.remove_chain) for remove_chain
    ff.o(i.f_open) refers to ff.o(i.move_window) for move_window
    ff.o(i.f_open) refers to diskio.o(i.ff_memfree) for ff_memfree
    ff.o(i.f_opendir) refers to ff.o(i.find_volume) for find_volume
    ff.o(i.f_opendir) refers to diskio.o(i.ff_memalloc) for ff_memalloc
    ff.o(i.f_opendir) refers to ff.o(i.follow_path) for follow_path
    ff.o(i.f_opendir) refers to diskio.o(i.ff_memfree) for ff_memfree
    ff.o(i.f_opendir) refers to ff.o(i.ld_clust) for ld_clust
    ff.o(i.f_opendir) refers to ff.o(i.dir_sdi) for dir_sdi
    ff.o(i.f_printf) refers to ff.o(i.putc_bfd) for putc_bfd
    ff.o(i.f_printf) refers to ff.o(i.f_write) for f_write
    ff.o(i.f_putc) refers to ff.o(i.putc_bfd) for putc_bfd
    ff.o(i.f_putc) refers to ff.o(i.f_write) for f_write
    ff.o(i.f_puts) refers to ff.o(i.putc_bfd) for putc_bfd
    ff.o(i.f_puts) refers to ff.o(i.f_write) for f_write
    ff.o(i.f_read) refers to ff.o(i.validate) for validate
    ff.o(i.f_read) refers to ff.o(i.clmt_clust) for clmt_clust
    ff.o(i.f_read) refers to ff.o(i.get_fat) for get_fat
    ff.o(i.f_read) refers to ff.o(i.clust2sect) for clust2sect
    ff.o(i.f_read) refers to diskio.o(i.disk_read) for disk_read
    ff.o(i.f_read) refers to ff.o(i.mem_cpy) for mem_cpy
    ff.o(i.f_read) refers to diskio.o(i.disk_write) for disk_write
    ff.o(i.f_readdir) refers to ff.o(i.validate) for validate
    ff.o(i.f_readdir) refers to ff.o(i.dir_sdi) for dir_sdi
    ff.o(i.f_readdir) refers to diskio.o(i.ff_memalloc) for ff_memalloc
    ff.o(i.f_readdir) refers to ff.o(i.dir_read) for dir_read
    ff.o(i.f_readdir) refers to ff.o(i.get_fileinfo) for get_fileinfo
    ff.o(i.f_readdir) refers to ff.o(i.dir_next) for dir_next
    ff.o(i.f_readdir) refers to diskio.o(i.ff_memfree) for ff_memfree
    ff.o(i.f_rename) refers to ff.o(i.find_volume) for find_volume
    ff.o(i.f_rename) refers to diskio.o(i.ff_memalloc) for ff_memalloc
    ff.o(i.f_rename) refers to ff.o(i.follow_path) for follow_path
    ff.o(i.f_rename) refers to ff.o(i.mem_cpy) for mem_cpy
    ff.o(i.f_rename) refers to ff.o(i.get_ldnumber) for get_ldnumber
    ff.o(i.f_rename) refers to ff.o(i.dir_register) for dir_register
    ff.o(i.f_rename) refers to ff.o(i.ld_clust) for ld_clust
    ff.o(i.f_rename) refers to ff.o(i.clust2sect) for clust2sect
    ff.o(i.f_rename) refers to ff.o(i.move_window) for move_window
    ff.o(i.f_rename) refers to ff.o(i.st_clust) for st_clust
    ff.o(i.f_rename) refers to ff.o(i.dir_remove) for dir_remove
    ff.o(i.f_rename) refers to ff.o(i.sync_fs) for sync_fs
    ff.o(i.f_rename) refers to diskio.o(i.ff_memfree) for ff_memfree
    ff.o(i.f_setlabel) refers to ff.o(i.find_volume) for find_volume
    ff.o(i.f_setlabel) refers to mycc936.o(i.ff_convert) for ff_convert
    ff.o(i.f_setlabel) refers to mycc936.o(i.ff_wtoupper) for ff_wtoupper
    ff.o(i.f_setlabel) refers to ff.o(i.chk_chr) for chk_chr
    ff.o(i.f_setlabel) refers to ff.o(i.dir_sdi) for dir_sdi
    ff.o(i.f_setlabel) refers to ff.o(i.dir_read) for dir_read
    ff.o(i.f_setlabel) refers to ff.o(i.mem_cpy) for mem_cpy
    ff.o(i.f_setlabel) refers to diskio.o(i.get_fattime) for get_fattime
    ff.o(i.f_setlabel) refers to ff.o(i.sync_fs) for sync_fs
    ff.o(i.f_setlabel) refers to ff.o(i.dir_alloc) for dir_alloc
    ff.o(i.f_setlabel) refers to ff.o(i.mem_set) for mem_set
    ff.o(i.f_stat) refers to ff.o(i.find_volume) for find_volume
    ff.o(i.f_stat) refers to diskio.o(i.ff_memalloc) for ff_memalloc
    ff.o(i.f_stat) refers to ff.o(i.follow_path) for follow_path
    ff.o(i.f_stat) refers to ff.o(i.get_fileinfo) for get_fileinfo
    ff.o(i.f_stat) refers to diskio.o(i.ff_memfree) for ff_memfree
    ff.o(i.f_sync) refers to ff.o(i.validate) for validate
    ff.o(i.f_sync) refers to diskio.o(i.disk_write) for disk_write
    ff.o(i.f_sync) refers to ff.o(i.move_window) for move_window
    ff.o(i.f_sync) refers to ff.o(i.st_clust) for st_clust
    ff.o(i.f_sync) refers to diskio.o(i.get_fattime) for get_fattime
    ff.o(i.f_sync) refers to ff.o(i.sync_fs) for sync_fs
    ff.o(i.f_truncate) refers to ff.o(i.validate) for validate
    ff.o(i.f_truncate) refers to ff.o(i.remove_chain) for remove_chain
    ff.o(i.f_truncate) refers to ff.o(i.get_fat) for get_fat
    ff.o(i.f_truncate) refers to ff.o(i.put_fat) for put_fat
    ff.o(i.f_truncate) refers to diskio.o(i.disk_write) for disk_write
    ff.o(i.f_unlink) refers to ff.o(i.find_volume) for find_volume
    ff.o(i.f_unlink) refers to diskio.o(i.ff_memalloc) for ff_memalloc
    ff.o(i.f_unlink) refers to ff.o(i.follow_path) for follow_path
    ff.o(i.f_unlink) refers to ff.o(i.ld_clust) for ld_clust
    ff.o(i.f_unlink) refers to ff.o(i.mem_cpy) for mem_cpy
    ff.o(i.f_unlink) refers to ff.o(i.dir_sdi) for dir_sdi
    ff.o(i.f_unlink) refers to ff.o(i.dir_read) for dir_read
    ff.o(i.f_unlink) refers to ff.o(i.dir_remove) for dir_remove
    ff.o(i.f_unlink) refers to ff.o(i.remove_chain) for remove_chain
    ff.o(i.f_unlink) refers to ff.o(i.sync_fs) for sync_fs
    ff.o(i.f_unlink) refers to diskio.o(i.ff_memfree) for ff_memfree
    ff.o(i.f_utime) refers to ff.o(i.find_volume) for find_volume
    ff.o(i.f_utime) refers to diskio.o(i.ff_memalloc) for ff_memalloc
    ff.o(i.f_utime) refers to ff.o(i.follow_path) for follow_path
    ff.o(i.f_utime) refers to diskio.o(i.ff_memfree) for ff_memfree
    ff.o(i.f_utime) refers to ff.o(i.sync_fs) for sync_fs
    ff.o(i.f_write) refers to ff.o(i.validate) for validate
    ff.o(i.f_write) refers to ff.o(i.create_chain) for create_chain
    ff.o(i.f_write) refers to ff.o(i.clmt_clust) for clmt_clust
    ff.o(i.f_write) refers to diskio.o(i.disk_write) for disk_write
    ff.o(i.f_write) refers to ff.o(i.clust2sect) for clust2sect
    ff.o(i.f_write) refers to ff.o(i.mem_cpy) for mem_cpy
    ff.o(i.f_write) refers to diskio.o(i.disk_read) for disk_read
    ff.o(i.find_volume) refers to ff.o(i.get_ldnumber) for get_ldnumber
    ff.o(i.find_volume) refers to diskio.o(i.disk_status) for disk_status
    ff.o(i.find_volume) refers to diskio.o(i.disk_initialize) for disk_initialize
    ff.o(i.find_volume) refers to ff.o(i.check_fs) for check_fs
    ff.o(i.find_volume) refers to ff.o(i.move_window) for move_window
    ff.o(i.find_volume) refers to ff.o(.data) for FatFs
    ff.o(i.fit_lfn) refers to ff.o(.constdata) for LfnOfs
    ff.o(i.follow_path) refers to ff.o(i.dir_sdi) for dir_sdi
    ff.o(i.follow_path) refers to ff.o(i.create_name) for create_name
    ff.o(i.follow_path) refers to ff.o(i.dir_find) for dir_find
    ff.o(i.follow_path) refers to ff.o(i.ld_clust) for ld_clust
    ff.o(i.gen_numname) refers to ff.o(i.mem_cpy) for mem_cpy
    ff.o(i.get_fat) refers to ff.o(i.move_window) for move_window
    ff.o(i.get_fileinfo) refers to mycc936.o(i.ff_convert) for ff_convert
    ff.o(i.move_window) refers to ff.o(i.sync_window) for sync_window
    ff.o(i.move_window) refers to diskio.o(i.disk_read) for disk_read
    ff.o(i.pick_lfn) refers to ff.o(.constdata) for LfnOfs
    ff.o(i.put_fat) refers to ff.o(i.move_window) for move_window
    ff.o(i.putc_bfd) refers to ff.o(i.f_write) for f_write
    ff.o(i.remove_chain) refers to ff.o(i.get_fat) for get_fat
    ff.o(i.remove_chain) refers to ff.o(i.put_fat) for put_fat
    ff.o(i.sync_fs) refers to ff.o(i.sync_window) for sync_window
    ff.o(i.sync_fs) refers to ff.o(i.mem_set) for mem_set
    ff.o(i.sync_fs) refers to diskio.o(i.disk_write) for disk_write
    ff.o(i.sync_fs) refers to diskio.o(i.disk_ioctl) for disk_ioctl
    ff.o(i.sync_window) refers to diskio.o(i.disk_write) for disk_write
    ff.o(i.validate) refers to diskio.o(i.disk_status) for disk_status
    exfuns.o(i.exf_getfree) refers to ff.o(i.f_getfree) for f_getfree
    exfuns.o(i.exfuns_init) refers to malloc.o(i.mymalloc) for mymalloc
    exfuns.o(i.exfuns_init) refers to exfuns.o(.data) for fs
    exfuns.o(i.f_typetell) refers to strcpy.o(.text) for strcpy
    exfuns.o(i.f_typetell) refers to exfuns.o(i.char_upper) for char_upper
    exfuns.o(i.f_typetell) refers to strcmpv7m.o(.text) for strcmp
    exfuns.o(i.f_typetell) refers to exfuns.o(.constdata) for FILE_TYPE_TBL
    exfuns.o(.constdata) refers to exfuns.o(.conststring) for .conststring
    fattester.o(i.mf_close) refers to ff.o(i.f_close) for f_close
    fattester.o(i.mf_close) refers to exfuns.o(.data) for file
    fattester.o(i.mf_closedir) refers to ff.o(i.f_closedir) for f_closedir
    fattester.o(i.mf_closedir) refers to exfuns.o(.bss) for dir
    fattester.o(i.mf_fmkfs) refers to ff.o(i.f_mkfs) for f_mkfs
    fattester.o(i.mf_getlabel) refers to _printf_percent.o(.ARM.Collect$$_printf_percent$$00000000) for _printf_percent
    fattester.o(i.mf_getlabel) refers to _printf_s.o(.ARM.Collect$$_printf_percent$$00000014) for _printf_s
    fattester.o(i.mf_getlabel) refers to _printf_str.o(.text) for _printf_str
    fattester.o(i.mf_getlabel) refers to _printf_x.o(.ARM.Collect$$_printf_percent$$0000000C) for _printf_x
    fattester.o(i.mf_getlabel) refers to _printf_hex_int.o(.text) for _printf_longlong_hex
    fattester.o(i.mf_getlabel) refers to ff.o(i.f_getlabel) for f_getlabel
    fattester.o(i.mf_getlabel) refers to noretval__2printf.o(.text) for __2printf
    fattester.o(i.mf_gets) refers to _printf_percent.o(.ARM.Collect$$_printf_percent$$00000000) for _printf_percent
    fattester.o(i.mf_gets) refers to _printf_s.o(.ARM.Collect$$_printf_percent$$00000014) for _printf_s
    fattester.o(i.mf_gets) refers to _printf_str.o(.text) for _printf_str
    fattester.o(i.mf_gets) refers to ff.o(i.f_gets) for f_gets
    fattester.o(i.mf_gets) refers to noretval__2printf.o(.text) for __2printf
    fattester.o(i.mf_gets) refers to exfuns.o(.data) for file
    fattester.o(i.mf_lseek) refers to ff.o(i.f_lseek) for f_lseek
    fattester.o(i.mf_lseek) refers to exfuns.o(.data) for file
    fattester.o(i.mf_mkdir) refers to ff.o(i.f_mkdir) for f_mkdir
    fattester.o(i.mf_mount) refers to ff.o(i.f_mount) for f_mount
    fattester.o(i.mf_mount) refers to exfuns.o(.data) for fs
    fattester.o(i.mf_open) refers to ff.o(i.f_open) for f_open
    fattester.o(i.mf_open) refers to exfuns.o(.data) for file
    fattester.o(i.mf_opendir) refers to ff.o(i.f_opendir) for f_opendir
    fattester.o(i.mf_opendir) refers to exfuns.o(.bss) for dir
    fattester.o(i.mf_putc) refers to ff.o(i.f_putc) for f_putc
    fattester.o(i.mf_putc) refers to exfuns.o(.data) for file
    fattester.o(i.mf_puts) refers to ff.o(i.f_puts) for f_puts
    fattester.o(i.mf_puts) refers to exfuns.o(.data) for file
    fattester.o(i.mf_read) refers to _printf_percent.o(.ARM.Collect$$_printf_percent$$00000000) for _printf_percent
    fattester.o(i.mf_read) refers to _printf_d.o(.ARM.Collect$$_printf_percent$$00000009) for _printf_d
    fattester.o(i.mf_read) refers to _printf_dec.o(.text) for _printf_int_dec
    fattester.o(i.mf_read) refers to _printf_c.o(.ARM.Collect$$_printf_percent$$00000013) for _printf_c
    fattester.o(i.mf_read) refers to _printf_str.o(.text) for _printf_str
    fattester.o(i.mf_read) refers to noretval__2printf.o(.text) for __2printf
    fattester.o(i.mf_read) refers to ff.o(i.f_read) for f_read
    fattester.o(i.mf_read) refers to exfuns.o(.data) for br
    fattester.o(i.mf_readdir) refers to _printf_percent.o(.ARM.Collect$$_printf_percent$$00000000) for _printf_percent
    fattester.o(i.mf_readdir) refers to _printf_d.o(.ARM.Collect$$_printf_percent$$00000009) for _printf_d
    fattester.o(i.mf_readdir) refers to _printf_dec.o(.text) for _printf_int_dec
    fattester.o(i.mf_readdir) refers to _printf_s.o(.ARM.Collect$$_printf_percent$$00000014) for _printf_s
    fattester.o(i.mf_readdir) refers to _printf_str.o(.text) for _printf_str
    fattester.o(i.mf_readdir) refers to malloc.o(i.mymalloc) for mymalloc
    fattester.o(i.mf_readdir) refers to ff.o(i.f_readdir) for f_readdir
    fattester.o(i.mf_readdir) refers to malloc.o(i.myfree) for myfree
    fattester.o(i.mf_readdir) refers to noretval__2printf.o(.text) for __2printf
    fattester.o(i.mf_readdir) refers to exfuns.o(.bss) for fileinfo
    fattester.o(i.mf_rename) refers to ff.o(i.f_rename) for f_rename
    fattester.o(i.mf_scan_files) refers to _printf_percent.o(.ARM.Collect$$_printf_percent$$00000000) for _printf_percent
    fattester.o(i.mf_scan_files) refers to _printf_s.o(.ARM.Collect$$_printf_percent$$00000014) for _printf_s
    fattester.o(i.mf_scan_files) refers to _printf_str.o(.text) for _printf_str
    fattester.o(i.mf_scan_files) refers to malloc.o(i.mymalloc) for mymalloc
    fattester.o(i.mf_scan_files) refers to ff.o(i.f_opendir) for f_opendir
    fattester.o(i.mf_scan_files) refers to noretval__2printf.o(.text) for __2printf
    fattester.o(i.mf_scan_files) refers to ff.o(i.f_readdir) for f_readdir
    fattester.o(i.mf_scan_files) refers to malloc.o(i.myfree) for myfree
    fattester.o(i.mf_scan_files) refers to exfuns.o(.bss) for fileinfo
    fattester.o(i.mf_setlabel) refers to _printf_percent.o(.ARM.Collect$$_printf_percent$$00000000) for _printf_percent
    fattester.o(i.mf_setlabel) refers to _printf_s.o(.ARM.Collect$$_printf_percent$$00000014) for _printf_s
    fattester.o(i.mf_setlabel) refers to _printf_str.o(.text) for _printf_str
    fattester.o(i.mf_setlabel) refers to _printf_x.o(.ARM.Collect$$_printf_percent$$0000000C) for _printf_x
    fattester.o(i.mf_setlabel) refers to _printf_hex_int.o(.text) for _printf_longlong_hex
    fattester.o(i.mf_setlabel) refers to ff.o(i.f_setlabel) for f_setlabel
    fattester.o(i.mf_setlabel) refers to noretval__2printf.o(.text) for __2printf
    fattester.o(i.mf_showfree) refers to _printf_percent.o(.ARM.Collect$$_printf_percent$$00000000) for _printf_percent
    fattester.o(i.mf_showfree) refers to _printf_d.o(.ARM.Collect$$_printf_percent$$00000009) for _printf_d
    fattester.o(i.mf_showfree) refers to _printf_dec.o(.text) for _printf_int_dec
    fattester.o(i.mf_showfree) refers to ff.o(i.f_getfree) for f_getfree
    fattester.o(i.mf_showfree) refers to noretval__2printf.o(.text) for __2printf
    fattester.o(i.mf_size) refers to exfuns.o(.data) for file
    fattester.o(i.mf_tell) refers to exfuns.o(.data) for file
    fattester.o(i.mf_unlink) refers to ff.o(i.f_unlink) for f_unlink
    fattester.o(i.mf_write) refers to _printf_percent.o(.ARM.Collect$$_printf_percent$$00000000) for _printf_percent
    fattester.o(i.mf_write) refers to _printf_d.o(.ARM.Collect$$_printf_percent$$00000009) for _printf_d
    fattester.o(i.mf_write) refers to _printf_dec.o(.text) for _printf_int_dec
    fattester.o(i.mf_write) refers to noretval__2printf.o(.text) for __2printf
    fattester.o(i.mf_write) refers to ff.o(i.f_write) for f_write
    fattester.o(i.mf_write) refers to exfuns.o(.data) for bw
    mycc936.o(i.ff_convert) refers to w25qxx.o(i.W25QXX_Read) for W25QXX_Read
    mycc936.o(i.ff_convert) refers to fontupd.o(.bss) for ftinfo
    mycc936.o(i.ff_wtoupper) refers to mycc936.o(.constdata) for tbl_lower
    fontupd.o(i.font_init) refers to w25qxx.o(i.W25QXX_Init) for W25QXX_Init
    fontupd.o(i.font_init) refers to w25qxx.o(i.W25QXX_Read) for W25QXX_Read
    fontupd.o(i.font_init) refers to delay.o(i.delay_ms) for delay_ms
    fontupd.o(i.font_init) refers to fontupd.o(.bss) for ftinfo
    fontupd.o(i.fupd_prog) refers to fflt_clz.o(x$fpl$ffltu) for __aeabi_ui2f
    fontupd.o(i.fupd_prog) refers to fdiv.o(x$fpl$fdiv) for __aeabi_fdiv
    fontupd.o(i.fupd_prog) refers to fmul.o(x$fpl$fmul) for __aeabi_fmul
    fontupd.o(i.fupd_prog) refers to feqf.o(x$fpl$feqf) for __aeabi_cfcmpeq
    fontupd.o(i.fupd_prog) refers to ili93xx.o(i.LCD_ShowString) for LCD_ShowString
    fontupd.o(i.fupd_prog) refers to ffixu.o(x$fpl$ffixu) for __aeabi_f2uiz
    fontupd.o(i.fupd_prog) refers to ili93xx.o(i.LCD_ShowNum) for LCD_ShowNum
    fontupd.o(i.updata_fontx) refers to malloc.o(i.mymalloc) for mymalloc
    fontupd.o(i.updata_fontx) refers to ff.o(i.f_open) for f_open
    fontupd.o(i.updata_fontx) refers to ff.o(i.f_read) for f_read
    fontupd.o(i.updata_fontx) refers to w25qxx.o(i.W25QXX_Write) for W25QXX_Write
    fontupd.o(i.updata_fontx) refers to fontupd.o(i.fupd_prog) for fupd_prog
    fontupd.o(i.updata_fontx) refers to ff.o(i.f_close) for f_close
    fontupd.o(i.updata_fontx) refers to malloc.o(i.myfree) for myfree
    fontupd.o(i.updata_fontx) refers to fontupd.o(.bss) for ftinfo
    fontupd.o(i.update_font) refers to malloc.o(i.mymalloc) for mymalloc
    fontupd.o(i.update_font) refers to malloc.o(i.myfree) for myfree
    fontupd.o(i.update_font) refers to strcpy.o(.text) for strcpy
    fontupd.o(i.update_font) refers to strcat.o(.text) for strcat
    fontupd.o(i.update_font) refers to ff.o(i.f_open) for f_open
    fontupd.o(i.update_font) refers to ili93xx.o(i.LCD_ShowString) for LCD_ShowString
    fontupd.o(i.update_font) refers to fontupd.o(i.fupd_prog) for fupd_prog
    fontupd.o(i.update_font) refers to w25qxx.o(i.W25QXX_Read) for W25QXX_Read
    fontupd.o(i.update_font) refers to w25qxx.o(i.W25QXX_Erase_Sector) for W25QXX_Erase_Sector
    fontupd.o(i.update_font) refers to fontupd.o(i.updata_fontx) for updata_fontx
    fontupd.o(i.update_font) refers to w25qxx.o(i.W25QXX_Write) for W25QXX_Write
    fontupd.o(i.update_font) refers to fontupd.o(.bss) for ftinfo
    fontupd.o(i.update_font) refers to fontupd.o(.constdata) for UNIGBK_PATH
    fontupd.o(.constdata) refers to fontupd.o(.conststring) for .conststring
    text.o(i.Get_HzMat) refers to w25qxx.o(i.W25QXX_Read) for W25QXX_Read
    text.o(i.Get_HzMat) refers to fontupd.o(.bss) for ftinfo
    text.o(i.Show_Font) refers to text.o(i.Get_HzMat) for Get_HzMat
    text.o(i.Show_Font) refers to ili93xx.o(i.LCD_Fast_DrawPoint) for LCD_Fast_DrawPoint
    text.o(i.Show_Font) refers to ili93xx.o(.data) for POINT_COLOR
    text.o(i.Show_Str) refers to ili93xx.o(i.LCD_ShowChar) for LCD_ShowChar
    text.o(i.Show_Str) refers to text.o(i.Show_Font) for Show_Font
    text.o(i.Show_Str_Mid) refers to strlen.o(.text) for strlen
    text.o(i.Show_Str_Mid) refers to text.o(i.Show_Str) for Show_Str
    text.o(i.Show_Str_Mid) refers to ili93xx.o(.bss) for lcddev
    atk_ncr.o(i.alientek_ncr_free) refers to malloc.o(i.myfree) for myfree
    atk_ncr.o(i.alientek_ncr_malloc) refers to malloc.o(i.mymalloc) for mymalloc
    atk_ncr.o(i.alientek_ncr_memset) refers to malloc.o(i.mymemset) for mymemset
    recognition.o(.text) refers to atk_ncr.o(i.alientek_ncr_free) for alientek_ncr_free
    recognition.o(.text) refers to atk_ncr.o(i.alientek_ncr_malloc) for alientek_ncr_malloc
    recognition.o(.text) refers to ffix.o(x$fpl$ffix) for __aeabi_f2iz
    recognition.o(.text) refers to fleqf.o(x$fpl$fleqf) for __aeabi_cfcmple
    recognition.o(.text) refers to fflt_clz.o(x$fpl$fflt) for __aeabi_i2f
    recognition.o(.text) refers to fmul.o(x$fpl$fmul) for __aeabi_fmul
    recognition.o(.text) refers to faddsub_clz.o(x$fpl$fadd) for __aeabi_fadd
    recognition.o(.text) refers to atk_ncr.o(i.alientek_ncr_memset) for alientek_ncr_memset
    recognition.o(.text) refers to fdiv.o(x$fpl$fdiv) for __aeabi_fdiv
    recognition.o(.text) refers to recognition.o(.data) for picdata
    recognition.o(.text) refers to recognition.o(.bss) for Htemp
    recognition.o(.text) refers to recognition.o(.constdata) for E_GARTABLE
    recognition.o(.text) refers to powf.o(i.powf) for powf
    recognition.o(.text) refers to f2d.o(x$fpl$f2d) for __aeabi_f2d
    recognition.o(.text) refers to dleqf.o(x$fpl$dleqf) for __aeabi_cdcmple
    recognition.o(.text) refers to rt_memcpy_v6.o(.text) for __aeabi_memcpy
    recognition.o(.text) refers to faddsub_clz.o(x$fpl$fsub) for __aeabi_fsub
    use_no_semi_2.o(.text) refers (Special) to use_no_semi.o(.text) for __use_no_semihosting_swi
    llsdiv.o(.text) refers to lludivv7m.o(.text) for __aeabi_uldivmod
    __2printf.o(.text) refers to _printf_char_file.o(.text) for _printf_char_file
    __2printf.o(.text) refers to usart.o(.data) for __stdout
    noretval__2printf.o(.text) refers to _printf_char_file.o(.text) for _printf_char_file
    noretval__2printf.o(.text) refers to usart.o(.data) for __stdout
    __printf.o(.text) refers to _printf_percent.o(.ARM.Collect$$_printf_percent$$00000000) for _printf_percent
    _printf_str.o(.text) refers (Special) to _printf_char.o(.text) for _printf_cs_common
    _printf_dec.o(.text) refers to _printf_intcommon.o(.text) for _printf_int_common
    _printf_hex_ll.o(.text) refers to _printf_intcommon.o(.text) for _printf_int_common
    _printf_hex_ll.o(.text) refers to _printf_hex_ll.o(.constdata) for .constdata
    _printf_hex_int.o(.text) refers to _printf_intcommon.o(.text) for _printf_int_common
    _printf_hex_int.o(.text) refers to _printf_hex_int.o(.constdata) for .constdata
    _printf_hex_int_ll.o(.text) refers to _printf_intcommon.o(.text) for _printf_int_common
    _printf_hex_int_ll.o(.text) refers to _printf_hex_int_ll.o(.constdata) for .constdata
    _printf_hex_ptr.o(.text) refers to _printf_intcommon.o(.text) for _printf_int_common
    _printf_hex_ptr.o(.text) refers to _printf_hex_ptr.o(.constdata) for .constdata
    _printf_hex_int_ptr.o(.text) refers to _printf_intcommon.o(.text) for _printf_int_common
    _printf_hex_int_ptr.o(.text) refers to _printf_hex_int_ptr.o(.constdata) for .constdata
    _printf_hex_ll_ptr.o(.text) refers to _printf_intcommon.o(.text) for _printf_int_common
    _printf_hex_ll_ptr.o(.text) refers to _printf_hex_ll_ptr.o(.constdata) for .constdata
    _printf_hex_int_ll_ptr.o(.text) refers to _printf_intcommon.o(.text) for _printf_int_common
    _printf_hex_int_ll_ptr.o(.text) refers to _printf_hex_int_ll_ptr.o(.constdata) for .constdata
    __printf_flags.o(.text) refers to _printf_percent.o(.ARM.Collect$$_printf_percent$$00000000) for _printf_percent
    __printf_flags.o(.text) refers to __printf_flags.o(.constdata) for .constdata
    __printf_ss.o(.text) refers to _printf_percent.o(.ARM.Collect$$_printf_percent$$00000000) for _printf_percent
    __printf_flags_ss.o(.text) refers to _printf_percent.o(.ARM.Collect$$_printf_percent$$00000000) for _printf_percent
    __printf_flags_ss.o(.text) refers to __printf_flags_ss.o(.constdata) for .constdata
    __printf_wp.o(.text) refers to __printf_wp.o(i._is_digit) for _is_digit
    __printf_wp.o(.text) refers to _printf_percent.o(.ARM.Collect$$_printf_percent$$00000000) for _printf_percent
    __printf_flags_wp.o(.text) refers to __printf_wp.o(i._is_digit) for _is_digit
    __printf_flags_wp.o(.text) refers to _printf_percent.o(.ARM.Collect$$_printf_percent$$00000000) for _printf_percent
    __printf_flags_wp.o(.text) refers to __printf_flags_wp.o(.constdata) for .constdata
    __printf_ss_wp.o(.text) refers to __printf_wp.o(i._is_digit) for _is_digit
    __printf_ss_wp.o(.text) refers to _printf_percent.o(.ARM.Collect$$_printf_percent$$00000000) for _printf_percent
    __printf_flags_ss_wp.o(.text) refers to __printf_wp.o(i._is_digit) for _is_digit
    __printf_flags_ss_wp.o(.text) refers to _printf_percent.o(.ARM.Collect$$_printf_percent$$00000000) for _printf_percent
    __printf_flags_ss_wp.o(.text) refers to __printf_flags_ss_wp.o(.constdata) for .constdata
    _printf_c.o(.ARM.Collect$$_printf_percent$$00000013) refers (Weak) to _printf_char.o(.text) for _printf_char
    _printf_s.o(.ARM.Collect$$_printf_percent$$00000014) refers (Weak) to _printf_char.o(.text) for _printf_string
    _printf_x.o(.ARM.Collect$$_printf_percent$$0000000C) refers (Weak) to _printf_hex_int.o(.text) for _printf_int_hex
    _printf_d.o(.ARM.Collect$$_printf_percent$$00000009) refers (Weak) to _printf_dec.o(.text) for _printf_int_dec
    _printf_percent.o(.ARM.Collect$$_printf_percent$$00000000) refers (Special) to _printf_percent_end.o(.ARM.Collect$$_printf_percent$$00000017) for _printf_percent_end
    rt_memcpy_v6.o(.text) refers to rt_memcpy_w.o(.text) for __aeabi_memcpy4
    __main.o(!!!main) refers to __rtentry.o(.ARM.Collect$$rtentry$$00000000) for __rt_entry
    daddsub_clz.o(x$fpl$dadd) refers (Special) to usenofp.o(x$fpl$usenofp) for __I$use$fp
    daddsub_clz.o(x$fpl$dadd) refers to daddsub_clz.o(x$fpl$dsub) for _dsub1
    daddsub_clz.o(x$fpl$dadd) refers to dretinf.o(x$fpl$dretinf) for __fpl_dretinf
    daddsub_clz.o(x$fpl$dadd) refers to dnaninf.o(x$fpl$dnaninf) for __fpl_dnaninf
    daddsub_clz.o(x$fpl$drsb) refers (Special) to usenofp.o(x$fpl$usenofp) for __I$use$fp
    daddsub_clz.o(x$fpl$drsb) refers to daddsub_clz.o(x$fpl$dadd) for _dadd1
    daddsub_clz.o(x$fpl$drsb) refers to daddsub_clz.o(x$fpl$dsub) for _dsub1
    daddsub_clz.o(x$fpl$dsub) refers (Special) to usenofp.o(x$fpl$usenofp) for __I$use$fp
    daddsub_clz.o(x$fpl$dsub) refers to daddsub_clz.o(x$fpl$dadd) for _dadd1
    daddsub_clz.o(x$fpl$dsub) refers to dnaninf.o(x$fpl$dnaninf) for __fpl_dnaninf
    dfixu.o(x$fpl$dfixu) refers (Special) to usenofp.o(x$fpl$usenofp) for __I$use$fp
    dfixu.o(x$fpl$dfixu) refers to dnaninf.o(x$fpl$dnaninf) for __fpl_dnaninf
    dfixu.o(x$fpl$dfixur) refers (Special) to usenofp.o(x$fpl$usenofp) for __I$use$fp
    dfixu.o(x$fpl$dfixur) refers to dnaninf.o(x$fpl$dnaninf) for __fpl_dnaninf
    dflt_clz.o(x$fpl$dfltu) refers (Special) to usenofp.o(x$fpl$usenofp) for __I$use$fp
    dflt_clz.o(x$fpl$dflt) refers (Special) to usenofp.o(x$fpl$usenofp) for __I$use$fp
    dflt_clz.o(x$fpl$dfltn) refers (Special) to usenofp.o(x$fpl$usenofp) for __I$use$fp
    dleqf.o(x$fpl$dleqf) refers (Special) to usenofp.o(x$fpl$usenofp) for __I$use$fp
    dleqf.o(x$fpl$dleqf) refers to dnaninf.o(x$fpl$dnaninf) for __fpl_dnaninf
    dleqf.o(x$fpl$dleqf) refers to dcmpi.o(x$fpl$dcmpinf) for __fpl_dcmp_Inf
    dmul.o(x$fpl$dmul) refers (Special) to usenofp.o(x$fpl$usenofp) for __I$use$fp
    dmul.o(x$fpl$dmul) refers to dretinf.o(x$fpl$dretinf) for __fpl_dretinf
    dmul.o(x$fpl$dmul) refers to dnaninf.o(x$fpl$dnaninf) for __fpl_dnaninf
    drleqf.o(x$fpl$drleqf) refers (Special) to usenofp.o(x$fpl$usenofp) for __I$use$fp
    drleqf.o(x$fpl$drleqf) refers to dleqf.o(x$fpl$dleqf) for __fpl_dcmple_InfNaN
    f2d.o(x$fpl$f2d) refers (Special) to usenofp.o(x$fpl$usenofp) for __I$use$fp
    f2d.o(x$fpl$f2d) refers to fnaninf.o(x$fpl$fnaninf) for __fpl_fnaninf
    f2d.o(x$fpl$f2d) refers to dretinf.o(x$fpl$dretinf) for __fpl_dretinf
    faddsub_clz.o(x$fpl$fadd) refers (Special) to usenofp.o(x$fpl$usenofp) for __I$use$fp
    faddsub_clz.o(x$fpl$fadd) refers to faddsub_clz.o(x$fpl$fsub) for _fsub1
    faddsub_clz.o(x$fpl$fadd) refers to fretinf.o(x$fpl$fretinf) for __fpl_fretinf
    faddsub_clz.o(x$fpl$fadd) refers to fnaninf.o(x$fpl$fnaninf) for __fpl_fnaninf
    faddsub_clz.o(x$fpl$frsb) refers (Special) to usenofp.o(x$fpl$usenofp) for __I$use$fp
    faddsub_clz.o(x$fpl$frsb) refers to faddsub_clz.o(x$fpl$fadd) for _fadd1
    faddsub_clz.o(x$fpl$frsb) refers to faddsub_clz.o(x$fpl$fsub) for _fsub1
    faddsub_clz.o(x$fpl$fsub) refers (Special) to usenofp.o(x$fpl$usenofp) for __I$use$fp
    faddsub_clz.o(x$fpl$fsub) refers to faddsub_clz.o(x$fpl$fadd) for _fadd1
    faddsub_clz.o(x$fpl$fsub) refers to fnaninf.o(x$fpl$fnaninf) for __fpl_fnaninf
    fdiv.o(x$fpl$frdiv) refers (Special) to usenofp.o(x$fpl$usenofp) for __I$use$fp
    fdiv.o(x$fpl$frdiv) refers to fdiv.o(x$fpl$fdiv) for _fdiv1
    fdiv.o(x$fpl$fdiv) refers (Special) to usenofp.o(x$fpl$usenofp) for __I$use$fp
    fdiv.o(x$fpl$fdiv) refers to fretinf.o(x$fpl$fretinf) for __fpl_fretinf
    fdiv.o(x$fpl$fdiv) refers to fnaninf.o(x$fpl$fnaninf) for __fpl_fnaninf
    feqf.o(x$fpl$feqf) refers (Special) to usenofp.o(x$fpl$usenofp) for __I$use$fp
    feqf.o(x$fpl$feqf) refers to fnaninf.o(x$fpl$fnaninf) for __fpl_fnaninf
    feqf.o(x$fpl$feqf) refers to fcmpi.o(x$fpl$fcmpinf) for __fpl_fcmp_Inf
    ffix.o(x$fpl$ffix) refers (Special) to usenofp.o(x$fpl$usenofp) for __I$use$fp
    ffix.o(x$fpl$ffix) refers to fnaninf.o(x$fpl$fnaninf) for __fpl_fnaninf
    ffix.o(x$fpl$ffixr) refers (Special) to usenofp.o(x$fpl$usenofp) for __I$use$fp
    ffix.o(x$fpl$ffixr) refers to fnaninf.o(x$fpl$fnaninf) for __fpl_fnaninf
    ffixu.o(x$fpl$ffixu) refers (Special) to usenofp.o(x$fpl$usenofp) for __I$use$fp
    ffixu.o(x$fpl$ffixu) refers to fnaninf.o(x$fpl$fnaninf) for __fpl_fnaninf
    ffixu.o(x$fpl$ffixur) refers (Special) to usenofp.o(x$fpl$usenofp) for __I$use$fp
    ffixu.o(x$fpl$ffixur) refers to fnaninf.o(x$fpl$fnaninf) for __fpl_fnaninf
    fflt_clz.o(x$fpl$ffltu) refers (Special) to usenofp.o(x$fpl$usenofp) for __I$use$fp
    fflt_clz.o(x$fpl$fflt) refers (Special) to usenofp.o(x$fpl$usenofp) for __I$use$fp
    fflt_clz.o(x$fpl$ffltn) refers (Special) to usenofp.o(x$fpl$usenofp) for __I$use$fp
    fleqf.o(x$fpl$fleqf) refers (Special) to usenofp.o(x$fpl$usenofp) for __I$use$fp
    fleqf.o(x$fpl$fleqf) refers to fnaninf.o(x$fpl$fnaninf) for __fpl_fnaninf
    fleqf.o(x$fpl$fleqf) refers to fcmpi.o(x$fpl$fcmpinf) for __fpl_fcmp_Inf
    fmul.o(x$fpl$fmul) refers (Special) to usenofp.o(x$fpl$usenofp) for __I$use$fp
    fmul.o(x$fpl$fmul) refers to fretinf.o(x$fpl$fretinf) for __fpl_fretinf
    fmul.o(x$fpl$fmul) refers to fnaninf.o(x$fpl$fnaninf) for __fpl_fnaninf
    powf.o(i.__softfp_powf) refers (Special) to usenofp.o(x$fpl$usenofp) for __I$use$fp
    powf.o(i.__softfp_powf) refers to powf.o(i.powf) for powf
    powf.o(i.powf) refers (Special) to usenofp.o(x$fpl$usenofp) for __I$use$fp
    powf.o(i.powf) refers to fflt_clz.o(x$fpl$fflt) for __aeabi_i2f
    powf.o(i.powf) refers to scalbnf.o(x$fpl$scalbnf) for __ARM_scalbnf
    powf.o(i.powf) refers to faddsub_clz.o(x$fpl$fadd) for __aeabi_fadd
    powf.o(i.powf) refers to faddsub_clz.o(x$fpl$fsub) for __aeabi_fsub
    powf.o(i.powf) refers to fdiv.o(x$fpl$fdiv) for __aeabi_fdiv
    powf.o(i.powf) refers to fmul.o(x$fpl$fmul) for __aeabi_fmul
    powf.o(i.powf) refers to faddsub_clz.o(x$fpl$frsb) for __aeabi_frsub
    powf.o(i.powf) refers to ffix.o(x$fpl$ffixr) for _ffix_r
    powf.o(i.powf) refers to fpclassifyf.o(i.__ARM_fpclassifyf) for __ARM_fpclassifyf
    powf.o(i.powf) refers to funder.o(i.__mathlib_flt_underflow) for __mathlib_flt_underflow
    powf.o(i.powf) refers to _rserrno.o(.text) for __set_errno
    powf.o(i.powf) refers to funder.o(i.__mathlib_flt_overflow) for __mathlib_flt_overflow
    powf.o(i.powf) refers to funder.o(i.__mathlib_flt_invalid) for __mathlib_flt_invalid
    powf.o(i.powf) refers to funder.o(i.__mathlib_flt_infnan2) for __mathlib_flt_infnan2
    powf.o(i.powf) refers to powf.o(.constdata) for .constdata
    powf.o(i.powf) refers to funder.o(i.__mathlib_flt_divzero) for __mathlib_flt_divzero
    powf.o(.constdata) refers (Special) to usenofp.o(x$fpl$usenofp) for __I$use$fp
    powf_x.o(i.____softfp_powf$lsc) refers (Special) to usenofp.o(x$fpl$usenofp) for __I$use$fp
    powf_x.o(i.____softfp_powf$lsc) refers to powf_x.o(i.__powf$lsc) for __powf$lsc
    powf_x.o(i.__powf$lsc) refers (Special) to usenofp.o(x$fpl$usenofp) for __I$use$fp
    powf_x.o(i.__powf$lsc) refers to fflt_clz.o(x$fpl$fflt) for __aeabi_i2f
    powf_x.o(i.__powf$lsc) refers to scalbnf.o(x$fpl$scalbnf) for __ARM_scalbnf
    powf_x.o(i.__powf$lsc) refers to faddsub_clz.o(x$fpl$fadd) for __aeabi_fadd
    powf_x.o(i.__powf$lsc) refers to faddsub_clz.o(x$fpl$fsub) for __aeabi_fsub
    powf_x.o(i.__powf$lsc) refers to fdiv.o(x$fpl$fdiv) for __aeabi_fdiv
    powf_x.o(i.__powf$lsc) refers to fmul.o(x$fpl$fmul) for __aeabi_fmul
    powf_x.o(i.__powf$lsc) refers to faddsub_clz.o(x$fpl$frsb) for __aeabi_frsub
    powf_x.o(i.__powf$lsc) refers to ffix.o(x$fpl$ffixr) for _ffix_r
    powf_x.o(i.__powf$lsc) refers to _rserrno.o(.text) for __set_errno
    powf_x.o(i.__powf$lsc) refers to funder.o(i.__mathlib_flt_infnan2) for __mathlib_flt_infnan2
    powf_x.o(i.__powf$lsc) refers to powf_x.o(.constdata) for .constdata
    powf_x.o(.constdata) refers (Special) to usenofp.o(x$fpl$usenofp) for __I$use$fp
    sqrt.o(i.__softfp_sqrt) refers (Special) to usenofp.o(x$fpl$usenofp) for __I$use$fp
    sqrt.o(i.__softfp_sqrt) refers to dsqrt_noumaal.o(x$fpl$dsqrt) for _dsqrt
    sqrt.o(i.__softfp_sqrt) refers to _rserrno.o(.text) for __set_errno
    sqrt.o(i.sqrt) refers (Special) to usenofp.o(x$fpl$usenofp) for __I$use$fp
    sqrt.o(i.sqrt) refers to dsqrt_noumaal.o(x$fpl$dsqrt) for _dsqrt
    sqrt.o(i.sqrt) refers to _rserrno.o(.text) for __set_errno
    sqrt_x.o(i.____softfp_sqrt$lsc) refers (Special) to usenofp.o(x$fpl$usenofp) for __I$use$fp
    sqrt_x.o(i.____softfp_sqrt$lsc) refers to dleqf.o(x$fpl$dleqf) for __aeabi_cdcmple
    sqrt_x.o(i.____softfp_sqrt$lsc) refers to _rserrno.o(.text) for __set_errno
    sqrt_x.o(i.____softfp_sqrt$lsc) refers to dsqrt_noumaal.o(x$fpl$dsqrt) for _dsqrt
    sqrt_x.o(i.__sqrt$lsc) refers (Special) to usenofp.o(x$fpl$usenofp) for __I$use$fp
    sqrt_x.o(i.__sqrt$lsc) refers to dleqf.o(x$fpl$dleqf) for __aeabi_cdcmple
    sqrt_x.o(i.__sqrt$lsc) refers to _rserrno.o(.text) for __set_errno
    sqrt_x.o(i.__sqrt$lsc) refers to dsqrt_noumaal.o(x$fpl$dsqrt) for _dsqrt
    __rtentry.o(.ARM.Collect$$rtentry$$00000000) refers (Special) to __rtentry2.o(.ARM.Collect$$rtentry$$0000000A) for __rt_entry_li
    __rtentry.o(.ARM.Collect$$rtentry$$00000000) refers (Special) to __rtentry2.o(.ARM.Collect$$rtentry$$0000000D) for __rt_entry_main
    __rtentry.o(.ARM.Collect$$rtentry$$00000000) refers (Special) to __rtentry2.o(.ARM.Collect$$rtentry$$0000000C) for __rt_entry_postli_1
    __rtentry.o(.ARM.Collect$$rtentry$$00000000) refers (Special) to __rtentry2.o(.ARM.Collect$$rtentry$$00000009) for __rt_entry_postsh_1
    __rtentry.o(.ARM.Collect$$rtentry$$00000000) refers (Special) to __rtentry2.o(.ARM.Collect$$rtentry$$00000002) for __rt_entry_presh_1
    __rtentry.o(.ARM.Collect$$rtentry$$00000000) refers (Special) to __rtentry4.o(.ARM.Collect$$rtentry$$00000004) for __rt_entry_sh
    _rserrno.o(.text) refers to rt_errno_addr_intlibspace.o(.text) for __aeabi_errno_addr
    _printf_char.o(.text) refers (Weak) to _printf_str.o(.text) for _printf_str
    _printf_char_file.o(.text) refers to _printf_char_common.o(.text) for _printf_char_common
    _printf_char_file.o(.text) refers to ferror.o(.text) for ferror
    _printf_char_file.o(.text) refers to usart.o(i.fputc) for fputc
    dcmpi.o(x$fpl$dcmpinf) refers (Special) to usenofp.o(x$fpl$usenofp) for __I$use$fp
    dnaninf.o(x$fpl$dnaninf) refers (Special) to usenofp.o(x$fpl$usenofp) for __I$use$fp
    dretinf.o(x$fpl$dretinf) refers (Special) to usenofp.o(x$fpl$usenofp) for __I$use$fp
    dsqrt_noumaal.o(x$fpl$dsqrt) refers (Special) to usenofp.o(x$fpl$usenofp) for __I$use$fp
    dsqrt_noumaal.o(x$fpl$dsqrt) refers to dnaninf.o(x$fpl$dnaninf) for __fpl_dnaninf
    fcmpi.o(x$fpl$fcmpinf) refers (Special) to usenofp.o(x$fpl$usenofp) for __I$use$fp
    fnaninf.o(x$fpl$fnaninf) refers (Special) to usenofp.o(x$fpl$usenofp) for __I$use$fp
    fretinf.o(x$fpl$fretinf) refers (Special) to usenofp.o(x$fpl$usenofp) for __I$use$fp
    istatus.o(x$fpl$ieeestatus) refers (Special) to usenofp.o(x$fpl$usenofp) for __I$use$fp
    scalbnf.o(x$fpl$scalbnf) refers (Special) to usenofp.o(x$fpl$usenofp) for __I$use$fp
    scalbnf.o(x$fpl$scalbnf) refers to fcheck1.o(x$fpl$fcheck1) for __fpl_fcheck_NaN1
    fpclassifyf.o(i.__ARM_fpclassifyf) refers (Special) to usenofp.o(x$fpl$usenofp) for __I$use$fp
    funder.o(i.__mathlib_flt_divzero) refers to fdiv.o(x$fpl$fdiv) for __aeabi_fdiv
    funder.o(i.__mathlib_flt_infnan) refers to scalbnf.o(x$fpl$scalbnf) for __ARM_scalbnf
    funder.o(i.__mathlib_flt_infnan2) refers to faddsub_clz.o(x$fpl$fadd) for __aeabi_fadd
    funder.o(i.__mathlib_flt_invalid) refers to fdiv.o(x$fpl$fdiv) for __aeabi_fdiv
    funder.o(i.__mathlib_flt_overflow) refers to scalbnf.o(x$fpl$scalbnf) for __ARM_scalbnf
    funder.o(i.__mathlib_flt_posinfnan) refers to fmul.o(x$fpl$fmul) for __aeabi_fmul
    funder.o(i.__mathlib_flt_underflow) refers to scalbnf.o(x$fpl$scalbnf) for __ARM_scalbnf
    __rtentry2.o(.ARM.Collect$$rtentry$$00000008) refers to boardinit2.o(.text) for _platform_post_stackheap_init
    __rtentry2.o(.ARM.Collect$$rtentry$$0000000A) refers to libinit.o(.ARM.Collect$$libinit$$00000000) for __rt_lib_init
    __rtentry2.o(.ARM.Collect$$rtentry$$0000000B) refers to boardinit3.o(.text) for _platform_post_lib_init
    __rtentry2.o(.ARM.Collect$$rtentry$$0000000D) refers to test.o(i.main) for main
    __rtentry2.o(.ARM.Collect$$rtentry$$0000000D) refers to exit.o(.text) for exit
    __rtentry2.o(.ARM.exidx) refers to __rtentry2.o(.ARM.Collect$$rtentry$$00000001) for .ARM.Collect$$rtentry$$00000001
    __rtentry2.o(.ARM.exidx) refers to __rtentry2.o(.ARM.Collect$$rtentry$$00000008) for .ARM.Collect$$rtentry$$00000008
    __rtentry2.o(.ARM.exidx) refers to __rtentry2.o(.ARM.Collect$$rtentry$$0000000A) for .ARM.Collect$$rtentry$$0000000A
    __rtentry2.o(.ARM.exidx) refers to __rtentry2.o(.ARM.Collect$$rtentry$$0000000B) for .ARM.Collect$$rtentry$$0000000B
    __rtentry2.o(.ARM.exidx) refers to __rtentry2.o(.ARM.Collect$$rtentry$$0000000D) for .ARM.Collect$$rtentry$$0000000D
    __rtentry4.o(.ARM.Collect$$rtentry$$00000004) refers to sys_stackheap_outer.o(.text) for __user_setup_stackheap
    __rtentry4.o(.ARM.exidx) refers to __rtentry4.o(.ARM.Collect$$rtentry$$00000004) for .ARM.Collect$$rtentry$$00000004
    aeabi_ldiv0_sigfpe.o(.text) refers to rt_div0.o(.text) for __rt_div0
    rt_errno_addr.o(.text) refers to rt_errno_addr.o(.bss) for __aeabi_errno_addr_data
    rt_errno_addr_intlibspace.o(.text) refers to libspace.o(.bss) for __libspace_start
    _printf_char_common.o(.text) refers to __printf.o(.text) for __printf
    fcheck1.o(x$fpl$fcheck1) refers (Special) to usenofp.o(x$fpl$usenofp) for __I$use$fp
    fcheck1.o(x$fpl$fcheck1) refers to retnan.o(x$fpl$retnan) for __fpl_return_NaN
    libspace.o(.text) refers to libspace.o(.bss) for __libspace_start
    sys_stackheap_outer.o(.text) refers to libspace.o(.text) for __user_perproc_libspace
    sys_stackheap_outer.o(.text) refers to startup_stm32f10x_hd.o(.text) for __user_initial_stackheap
    rt_div0.o(.text) refers to defsig_fpe_outer.o(.text) for __rt_SIGFPE
    exit.o(.text) refers to rtexit.o(.ARM.Collect$$rtexit$$00000000) for __rt_exit
    libinit.o(.ARM.Collect$$libinit$$00000000) refers (Special) to libinit2.o(.ARM.Collect$$libinit$$0000002E) for __rt_lib_init_alloca_1
    libinit.o(.ARM.Collect$$libinit$$00000000) refers (Special) to libinit2.o(.ARM.Collect$$libinit$$0000002C) for __rt_lib_init_argv_1
    libinit.o(.ARM.Collect$$libinit$$00000000) refers (Special) to libinit2.o(.ARM.Collect$$libinit$$0000001B) for __rt_lib_init_atexit_1
    libinit.o(.ARM.Collect$$libinit$$00000000) refers (Special) to libinit2.o(.ARM.Collect$$libinit$$00000021) for __rt_lib_init_clock_1
    libinit.o(.ARM.Collect$$libinit$$00000000) refers (Special) to libinit2.o(.ARM.Collect$$libinit$$00000032) for __rt_lib_init_cpp_1
    libinit.o(.ARM.Collect$$libinit$$00000000) refers (Special) to libinit2.o(.ARM.Collect$$libinit$$00000030) for __rt_lib_init_exceptions_1
    libinit.o(.ARM.Collect$$libinit$$00000000) refers (Special) to libinit2.o(.ARM.Collect$$libinit$$00000002) for __rt_lib_init_fp_1
    libinit.o(.ARM.Collect$$libinit$$00000000) refers (Special) to libinit2.o(.ARM.Collect$$libinit$$0000001F) for __rt_lib_init_fp_trap_1
    libinit.o(.ARM.Collect$$libinit$$00000000) refers (Special) to libinit2.o(.ARM.Collect$$libinit$$00000023) for __rt_lib_init_getenv_1
    libinit.o(.ARM.Collect$$libinit$$00000000) refers (Special) to libinit2.o(.ARM.Collect$$libinit$$0000000A) for __rt_lib_init_heap_1
    libinit.o(.ARM.Collect$$libinit$$00000000) refers (Special) to libinit2.o(.ARM.Collect$$libinit$$00000011) for __rt_lib_init_lc_collate_1
    libinit.o(.ARM.Collect$$libinit$$00000000) refers (Special) to libinit2.o(.ARM.Collect$$libinit$$00000013) for __rt_lib_init_lc_ctype_1
    libinit.o(.ARM.Collect$$libinit$$00000000) refers (Special) to libinit2.o(.ARM.Collect$$libinit$$00000015) for __rt_lib_init_lc_monetary_1
    libinit.o(.ARM.Collect$$libinit$$00000000) refers (Special) to libinit2.o(.ARM.Collect$$libinit$$00000017) for __rt_lib_init_lc_numeric_1
    libinit.o(.ARM.Collect$$libinit$$00000000) refers (Special) to libinit2.o(.ARM.Collect$$libinit$$00000019) for __rt_lib_init_lc_time_1
    libinit.o(.ARM.Collect$$libinit$$00000000) refers (Special) to libinit2.o(.ARM.Collect$$libinit$$00000004) for __rt_lib_init_preinit_1
    libinit.o(.ARM.Collect$$libinit$$00000000) refers (Special) to libinit2.o(.ARM.Collect$$libinit$$0000000E) for __rt_lib_init_rand_1
    libinit.o(.ARM.Collect$$libinit$$00000000) refers (Special) to libinit2.o(.ARM.Collect$$libinit$$00000033) for __rt_lib_init_return
    libinit.o(.ARM.Collect$$libinit$$00000000) refers (Special) to libinit2.o(.ARM.Collect$$libinit$$0000001D) for __rt_lib_init_signal_1
    libinit.o(.ARM.Collect$$libinit$$00000000) refers (Special) to libinit2.o(.ARM.Collect$$libinit$$00000025) for __rt_lib_init_stdio_1
    libinit.o(.ARM.Collect$$libinit$$00000000) refers (Special) to libinit2.o(.ARM.Collect$$libinit$$0000000C) for __rt_lib_init_user_alloc_1
    retnan.o(x$fpl$retnan) refers (Special) to usenofp.o(x$fpl$usenofp) for __I$use$fp
    retnan.o(x$fpl$retnan) refers to trapv.o(x$fpl$trapveneer) for __fpl_cmpreturn
    rtexit.o(.ARM.Collect$$rtexit$$00000000) refers (Special) to rtexit2.o(.ARM.Collect$$rtexit$$00000004) for __rt_exit_exit
    rtexit.o(.ARM.Collect$$rtexit$$00000000) refers (Special) to rtexit2.o(.ARM.Collect$$rtexit$$00000003) for __rt_exit_ls
    rtexit.o(.ARM.Collect$$rtexit$$00000000) refers (Special) to rtexit2.o(.ARM.Collect$$rtexit$$00000002) for __rt_exit_prels_1
    rtexit.o(.ARM.exidx) refers (Special) to rtexit2.o(.ARM.Collect$$rtexit$$00000004) for __rt_exit_exit
    rtexit.o(.ARM.exidx) refers (Special) to rtexit2.o(.ARM.Collect$$rtexit$$00000003) for __rt_exit_ls
    rtexit.o(.ARM.exidx) refers (Special) to rtexit2.o(.ARM.Collect$$rtexit$$00000002) for __rt_exit_prels_1
    rtexit.o(.ARM.exidx) refers to rtexit.o(.ARM.Collect$$rtexit$$00000000) for .ARM.Collect$$rtexit$$00000000
    defsig_fpe_outer.o(.text) refers to defsig_fpe_inner.o(.text) for __rt_SIGFPE_inner
    defsig_fpe_outer.o(.text) refers to defsig_exit.o(.text) for __sig_exit
    defsig_fpe_formal.o(.text) refers to rt_raise.o(.text) for __rt_raise
    libinit2.o(.ARM.Collect$$libinit$$00000010) refers to libinit2.o(.ARM.Collect$$libinit$$0000000F) for .ARM.Collect$$libinit$$0000000F
    libinit2.o(.ARM.Collect$$libinit$$00000012) refers to libinit2.o(.ARM.Collect$$libinit$$0000000F) for .ARM.Collect$$libinit$$0000000F
    libinit2.o(.ARM.Collect$$libinit$$00000014) refers to libinit2.o(.ARM.Collect$$libinit$$0000000F) for .ARM.Collect$$libinit$$0000000F
    libinit2.o(.ARM.Collect$$libinit$$00000016) refers to libinit2.o(.ARM.Collect$$libinit$$0000000F) for .ARM.Collect$$libinit$$0000000F
    libinit2.o(.ARM.Collect$$libinit$$00000018) refers to libinit2.o(.ARM.Collect$$libinit$$0000000F) for .ARM.Collect$$libinit$$0000000F
    libinit2.o(.ARM.Collect$$libinit$$00000026) refers to argv_veneer.o(.emb_text) for __ARM_argv_veneer
    libinit2.o(.ARM.Collect$$libinit$$00000027) refers to argv_veneer.o(.emb_text) for __ARM_argv_veneer
    trapv.o(x$fpl$trapveneer) refers (Special) to usenofp.o(x$fpl$usenofp) for __I$use$fp
    rtexit2.o(.ARM.Collect$$rtexit$$00000003) refers to libshutdown.o(.ARM.Collect$$libshutdown$$00000000) for __rt_lib_shutdown
    rtexit2.o(.ARM.Collect$$rtexit$$00000004) refers to usart.o(i._sys_exit) for _sys_exit
    rtexit2.o(.ARM.exidx) refers to rtexit2.o(.ARM.Collect$$rtexit$$00000001) for .ARM.Collect$$rtexit$$00000001
    rtexit2.o(.ARM.exidx) refers to rtexit2.o(.ARM.Collect$$rtexit$$00000003) for .ARM.Collect$$rtexit$$00000003
    rtexit2.o(.ARM.exidx) refers to rtexit2.o(.ARM.Collect$$rtexit$$00000004) for .ARM.Collect$$rtexit$$00000004
    rt_raise.o(.text) refers to __raise.o(.text) for __raise
    rt_raise.o(.text) refers to usart.o(i._sys_exit) for _sys_exit
    defsig_exit.o(.text) refers to usart.o(i._sys_exit) for _sys_exit
    defsig_fpe_inner.o(.text) refers to defsig_general.o(.text) for __default_signal_display
    argv_veneer.o(.emb_text) refers to no_argv.o(.text) for __ARM_get_argv
    __raise.o(.text) refers to defsig.o(CL$$defsig) for __default_signal_handler
    defsig_general.o(.text) refers to sys_wrch.o(.text) for _ttywrch
    _get_argv_nomalloc.o(.text) refers (Special) to hrguard.o(.text) for __heap_region$guard
    _get_argv_nomalloc.o(.text) refers to defsig_rtmem_outer.o(.text) for __rt_SIGRTMEM
    _get_argv_nomalloc.o(.text) refers to sys_command.o(.text) for _sys_command_string
    libshutdown.o(.ARM.Collect$$libshutdown$$00000000) refers (Special) to libshutdown2.o(.ARM.Collect$$libshutdown$$00000006) for __rt_lib_shutdown_fp_trap_1
    libshutdown.o(.ARM.Collect$$libshutdown$$00000000) refers (Special) to libshutdown2.o(.ARM.Collect$$libshutdown$$0000000E) for __rt_lib_shutdown_heap_1
    libshutdown.o(.ARM.Collect$$libshutdown$$00000000) refers (Special) to libshutdown2.o(.ARM.Collect$$libshutdown$$0000000F) for __rt_lib_shutdown_return
    libshutdown.o(.ARM.Collect$$libshutdown$$00000000) refers (Special) to libshutdown2.o(.ARM.Collect$$libshutdown$$00000009) for __rt_lib_shutdown_signal_1
    libshutdown.o(.ARM.Collect$$libshutdown$$00000000) refers (Special) to libshutdown2.o(.ARM.Collect$$libshutdown$$00000003) for __rt_lib_shutdown_stdio_1
    libshutdown.o(.ARM.Collect$$libshutdown$$00000000) refers (Special) to libshutdown2.o(.ARM.Collect$$libshutdown$$0000000B) for __rt_lib_shutdown_user_alloc_1
    sys_wrch.o(.text) refers (Special) to use_no_semi.o(.text) for __I$use$semihosting
    sys_wrch.o(.text) refers (Special) to indicate_semi.o(.text) for __semihosting_library_function
    sys_command.o(.text) refers (Special) to use_no_semi.o(.text) for __I$use$semihosting
    sys_command.o(.text) refers (Special) to indicate_semi.o(.text) for __semihosting_library_function
    defsig_rtmem_outer.o(.text) refers to defsig_rtmem_inner.o(.text) for __rt_SIGRTMEM_inner
    defsig_rtmem_outer.o(.text) refers to defsig_exit.o(.text) for __sig_exit
    defsig_rtmem_formal.o(.text) refers to rt_raise.o(.text) for __rt_raise
    defsig.o(CL$$defsig) refers to defsig_fpe_inner.o(.text) for __rt_SIGFPE_inner
    defsig.o(CL$$defsig) refers to defsig_rtmem_inner.o(.text) for __rt_SIGRTMEM_inner
    defsig_abrt_inner.o(.text) refers to defsig_general.o(.text) for __default_signal_display
    defsig_rtred_inner.o(.text) refers to defsig_general.o(.text) for __default_signal_display
    defsig_rtmem_inner.o(.text) refers to defsig_general.o(.text) for __default_signal_display
    defsig_stak_inner.o(.text) refers to defsig_general.o(.text) for __default_signal_display
    defsig_pvfn_inner.o(.text) refers to defsig_general.o(.text) for __default_signal_display
    defsig_cppl_inner.o(.text) refers to defsig_general.o(.text) for __default_signal_display
    defsig_segv_inner.o(.text) refers to defsig_general.o(.text) for __default_signal_display
    defsig_other.o(.text) refers to defsig_general.o(.text) for __default_signal_display


==============================================================================

Removing Unused input sections from the image.

    Removing test.o(i.my_abs), (18 bytes).
    Removing sys.o(.emb_text), (6 bytes).
    Removing sys.o(i.Ex_NVIC_Config), (160 bytes).
    Removing sys.o(i.JTAG_Set), (48 bytes).
    Removing sys.o(i.Sys_Soft_Reset), (16 bytes).
    Removing sys.o(i.Sys_Standby), (76 bytes).
    Removing sys.o(i.WFI_SET), (4 bytes).
    Removing ili93xx.o(i.LCD_BGR2RGB), (26 bytes).
    Removing ili93xx.o(i.LCD_Color_Fill), (96 bytes).
    Removing ili93xx.o(i.LCD_DisplayOff), (96 bytes).
    Removing ili93xx.o(i.LCD_DisplayOn), (96 bytes).
    Removing ili93xx.o(i.LCD_ReadPoint), (364 bytes).
    Removing ili93xx.o(i.LCD_Set_Window), (532 bytes).
    Removing ili93xx.o(i.LCD_ShowxNum), (190 bytes).
    Removing ili93xx.o(i.LCD_WriteRAM), (12 bytes).
    Removing ili93xx.o(i.opt_delay), (14 bytes).
    Removing sdio_sdcard.o(i.SD_GetState), (26 bytes).
    Removing sdio_sdcard.o(i.SD_PowerOFF), (20 bytes).
    Removing sdio_sdcard.o(i.SD_SendStatus), (60 bytes).
    Removing spi.o(i.SPI1_Init), (180 bytes).
    Removing spi.o(i.SPI1_ReadWriteByte), (48 bytes).
    Removing spi.o(i.SPI1_SetSpeed), (44 bytes).
    Removing w25qxx.o(i.W25QXX_Erase_Chip), (44 bytes).
    Removing w25qxx.o(i.W25QXX_PowerDown), (40 bytes).
    Removing w25qxx.o(i.W25QXX_WAKEUP), (40 bytes).
    Removing w25qxx.o(i.W25QXX_Write_Disable), (32 bytes).
    Removing w25qxx.o(i.W25QXX_Write_SR), (40 bytes).
    Removing 24cxx.o(i.AT24CXX_Check), (46 bytes).
    Removing touch.o(i.TP_Draw_Big_Point), (60 bytes).
    Removing malloc.o(i.mymemcpy), (26 bytes).
    Removing malloc.o(i.myrealloc), (68 bytes).
    Removing diskio.o(i.disk_ioctl), (180 bytes).
    Removing diskio.o(i.ff_memalloc), (14 bytes).
    Removing diskio.o(i.ff_memfree), (14 bytes).
    Removing diskio.o(i.get_fattime), (4 bytes).
    Removing ff.o(i.chk_chr), (20 bytes).
    Removing ff.o(i.clmt_clust), (50 bytes).
    Removing ff.o(i.clust2sect), (26 bytes).
    Removing ff.o(i.cmp_lfn), (144 bytes).
    Removing ff.o(i.create_chain), (214 bytes).
    Removing ff.o(i.create_name), (624 bytes).
    Removing ff.o(i.dir_alloc), (92 bytes).
    Removing ff.o(i.dir_find), (234 bytes).
    Removing ff.o(i.dir_next), (270 bytes).
    Removing ff.o(i.dir_read), (198 bytes).
    Removing ff.o(i.dir_register), (298 bytes).
    Removing ff.o(i.dir_remove), (106 bytes).
    Removing ff.o(i.dir_sdi), (158 bytes).
    Removing ff.o(i.f_chmod), (112 bytes).
    Removing ff.o(i.f_close), (32 bytes).
    Removing ff.o(i.f_closedir), (22 bytes).
    Removing ff.o(i.f_getfree), (258 bytes).
    Removing ff.o(i.f_getlabel), (190 bytes).
    Removing ff.o(i.f_gets), (82 bytes).
    Removing ff.o(i.f_lseek), (684 bytes).
    Removing ff.o(i.f_mkdir), (380 bytes).
    Removing ff.o(i.f_mkfs), (1608 bytes).
    Removing ff.o(i.f_open), (384 bytes).
    Removing ff.o(i.f_opendir), (136 bytes).
    Removing ff.o(i.f_printf), (628 bytes).
    Removing ff.o(i.f_putc), (64 bytes).
    Removing ff.o(i.f_puts), (74 bytes).
    Removing ff.o(i.f_read), (432 bytes).
    Removing ff.o(i.f_readdir), (114 bytes).
    Removing ff.o(i.f_rename), (290 bytes).
    Removing ff.o(i.f_setlabel), (500 bytes).
    Removing ff.o(i.f_stat), (84 bytes).
    Removing ff.o(i.f_sync), (176 bytes).
    Removing ff.o(i.f_truncate), (184 bytes).
    Removing ff.o(i.f_unlink), (190 bytes).
    Removing ff.o(i.f_utime), (110 bytes).
    Removing ff.o(i.f_write), (490 bytes).
    Removing ff.o(i.fit_lfn), (128 bytes).
    Removing ff.o(i.follow_path), (144 bytes).
    Removing ff.o(i.gen_numname), (204 bytes).
    Removing ff.o(i.get_fat), (242 bytes).
    Removing ff.o(i.get_fileinfo), (272 bytes).
    Removing ff.o(i.ld_clust), (32 bytes).
    Removing ff.o(i.mem_cmp), (38 bytes).
    Removing ff.o(i.mem_cpy), (26 bytes).
    Removing ff.o(i.mem_set), (20 bytes).
    Removing ff.o(i.pick_lfn), (116 bytes).
    Removing ff.o(i.put_fat), (322 bytes).
    Removing ff.o(i.putc_bfd), (68 bytes).
    Removing ff.o(i.remove_chain), (108 bytes).
    Removing ff.o(i.st_clust), (16 bytes).
    Removing ff.o(i.sum_sfn), (32 bytes).
    Removing ff.o(i.sync_fs), (200 bytes).
    Removing ff.o(i.validate), (54 bytes).
    Removing ff.o(.constdata), (58 bytes).
    Removing exfuns.o(i.char_upper), (26 bytes).
    Removing exfuns.o(i.exf_getfree), (74 bytes).
    Removing exfuns.o(i.f_typetell), (192 bytes).
    Removing exfuns.o(.bss), (68 bytes).
    Removing exfuns.o(.constdata), (312 bytes).
    Removing exfuns.o(.conststring), (100 bytes).
    Removing fattester.o(i.mf_close), (20 bytes).
    Removing fattester.o(i.mf_closedir), (16 bytes).
    Removing fattester.o(i.mf_fmkfs), (20 bytes).
    Removing fattester.o(i.mf_getlabel), (132 bytes).
    Removing fattester.o(i.mf_gets), (76 bytes).
    Removing fattester.o(i.mf_lseek), (20 bytes).
    Removing fattester.o(i.mf_mkdir), (12 bytes).
    Removing fattester.o(i.mf_mount), (24 bytes).
    Removing fattester.o(i.mf_open), (28 bytes).
    Removing fattester.o(i.mf_opendir), (20 bytes).
    Removing fattester.o(i.mf_putc), (24 bytes).
    Removing fattester.o(i.mf_puts), (24 bytes).
    Removing fattester.o(i.mf_read), (344 bytes).
    Removing fattester.o(i.mf_readdir), (404 bytes).
    Removing fattester.o(i.mf_rename), (16 bytes).
    Removing fattester.o(i.mf_scan_files), (144 bytes).
    Removing fattester.o(i.mf_setlabel), (92 bytes).
    Removing fattester.o(i.mf_showfree), (168 bytes).
    Removing fattester.o(i.mf_size), (12 bytes).
    Removing fattester.o(i.mf_tell), (12 bytes).
    Removing fattester.o(i.mf_unlink), (12 bytes).
    Removing fattester.o(i.mf_write), (184 bytes).
    Removing mycc936.o(i.ff_convert), (152 bytes).
    Removing mycc936.o(i.ff_wtoupper), (56 bytes).
    Removing mycc936.o(.constdata), (960 bytes).
    Removing fontupd.o(i.fupd_prog), (144 bytes).
    Removing fontupd.o(i.updata_fontx), (356 bytes).
    Removing fontupd.o(i.update_font), (916 bytes).
    Removing fontupd.o(.constdata), (16 bytes).
    Removing fontupd.o(.conststring), (96 bytes).
    Removing text.o(i.Show_Str_Mid), (112 bytes).

127 unused section(s) (total 19862 bytes) removed from the image.

==============================================================================

Image Symbol Table

    Local Symbols

    Symbol Name                              Value     Ov Type        Size  Object(Section)

    ../clib/angel/boardlib.s                 0x00000000   Number         0  boardinit3.o ABSOLUTE
    ../clib/angel/boardlib.s                 0x00000000   Number         0  boardinit1.o ABSOLUTE
    ../clib/angel/boardlib.s                 0x00000000   Number         0  boardinit2.o ABSOLUTE
    ../clib/angel/boardlib.s                 0x00000000   Number         0  boardshut.o ABSOLUTE
    ../clib/angel/handlers.s                 0x00000000   Number         0  __scatter_copy.o ABSOLUTE
    ../clib/angel/handlers.s                 0x00000000   Number         0  __scatter_zi.o ABSOLUTE
    ../clib/angel/kernel.s                   0x00000000   Number         0  __rtentry4.o ABSOLUTE
    ../clib/angel/kernel.s                   0x00000000   Number         0  __rtentry2.o ABSOLUTE
    ../clib/angel/kernel.s                   0x00000000   Number         0  rtexit.o ABSOLUTE
    ../clib/angel/kernel.s                   0x00000000   Number         0  __rtentry.o ABSOLUTE
    ../clib/angel/kernel.s                   0x00000000   Number         0  rtexit2.o ABSOLUTE
    ../clib/angel/rt.s                       0x00000000   Number         0  aeabi_ldiv0_sigfpe.o ABSOLUTE
    ../clib/angel/rt.s                       0x00000000   Number         0  rt_div0.o ABSOLUTE
    ../clib/angel/rt.s                       0x00000000   Number         0  rt_errno_addr_intlibspace.o ABSOLUTE
    ../clib/angel/rt.s                       0x00000000   Number         0  rt_raise.o ABSOLUTE
    ../clib/angel/rt.s                       0x00000000   Number         0  aeabi_ldiv0.o ABSOLUTE
    ../clib/angel/rt.s                       0x00000000   Number         0  rt_errno_addr.o ABSOLUTE
    ../clib/angel/scatter.s                  0x00000000   Number         0  __scatter.o ABSOLUTE
    ../clib/angel/startup.s                  0x00000000   Number         0  __main.o ABSOLUTE
    ../clib/angel/sys.s                      0x00000000   Number         0  use_no_semi.o ABSOLUTE
    ../clib/angel/sys.s                      0x00000000   Number         0  use_no_semi_2.o ABSOLUTE
    ../clib/angel/sys.s                      0x00000000   Number         0  sys_stackheap_outer.o ABSOLUTE
    ../clib/angel/sys.s                      0x00000000   Number         0  libspace.o ABSOLUTE
    ../clib/angel/sys.s                      0x00000000   Number         0  indicate_semi.o ABSOLUTE
    ../clib/angel/sysapp.c                   0x00000000   Number         0  sys_command.o ABSOLUTE
    ../clib/angel/sysapp.c                   0x00000000   Number         0  sys_wrch.o ABSOLUTE
    ../clib/armsys.c                         0x00000000   Number         0  argv_veneer.o ABSOLUTE
    ../clib/armsys.c                         0x00000000   Number         0  argv_veneer.o ABSOLUTE
    ../clib/armsys.c                         0x00000000   Number         0  _get_argv_nomalloc.o ABSOLUTE
    ../clib/armsys.c                         0x00000000   Number         0  no_argv.o ABSOLUTE
    ../clib/fenv.c                           0x00000000   Number         0  _rserrno.o ABSOLUTE
    ../clib/heapalloc.c                      0x00000000   Number         0  hrguard.o ABSOLUTE
    ../clib/heapaux.c                        0x00000000   Number         0  heapauxi.o ABSOLUTE
    ../clib/libinit.s                        0x00000000   Number         0  libinit.o ABSOLUTE
    ../clib/libinit.s                        0x00000000   Number         0  libinit2.o ABSOLUTE
    ../clib/libinit.s                        0x00000000   Number         0  libshutdown2.o ABSOLUTE
    ../clib/libinit.s                        0x00000000   Number         0  libshutdown.o ABSOLUTE
    ../clib/longlong.s                       0x00000000   Number         0  lludivv7m.o ABSOLUTE
    ../clib/longlong.s                       0x00000000   Number         0  llsdiv.o ABSOLUTE
    ../clib/memcpset.s                       0x00000000   Number         0  rt_memcpy_v6.o ABSOLUTE
    ../clib/memcpset.s                       0x00000000   Number         0  strcmpv7m.o ABSOLUTE
    ../clib/memcpset.s                       0x00000000   Number         0  rt_memcpy_w.o ABSOLUTE
    ../clib/printf.c                         0x00000000   Number         0  _printf_char.o ABSOLUTE
    ../clib/printf.c                         0x00000000   Number         0  __2printf.o ABSOLUTE
    ../clib/printf.c                         0x00000000   Number         0  __printf_flags_ss.o ABSOLUTE
    ../clib/printf.c                         0x00000000   Number         0  _printf_hex_int.o ABSOLUTE
    ../clib/printf.c                         0x00000000   Number         0  __printf_ss.o ABSOLUTE
    ../clib/printf.c                         0x00000000   Number         0  _printf_hex_int_ll.o ABSOLUTE
    ../clib/printf.c                         0x00000000   Number         0  _printf_hex_ll.o ABSOLUTE
    ../clib/printf.c                         0x00000000   Number         0  _printf_dec.o ABSOLUTE
    ../clib/printf.c                         0x00000000   Number         0  __printf_flags_ss_wp.o ABSOLUTE
    ../clib/printf.c                         0x00000000   Number         0  __printf_ss_wp.o ABSOLUTE
    ../clib/printf.c                         0x00000000   Number         0  _printf_hex_int_ptr.o ABSOLUTE
    ../clib/printf.c                         0x00000000   Number         0  __printf_flags_wp.o ABSOLUTE
    ../clib/printf.c                         0x00000000   Number         0  __printf_wp.o ABSOLUTE
    ../clib/printf.c                         0x00000000   Number         0  _printf_hex_ll_ptr.o ABSOLUTE
    ../clib/printf.c                         0x00000000   Number         0  _printf_hex_int_ll_ptr.o ABSOLUTE
    ../clib/printf.c                         0x00000000   Number         0  _printf_hex_ptr.o ABSOLUTE
    ../clib/printf.c                         0x00000000   Number         0  __printf_nopercent.o ABSOLUTE
    ../clib/printf.c                         0x00000000   Number         0  _printf_str.o ABSOLUTE
    ../clib/printf.c                         0x00000000   Number         0  _printf_char_file.o ABSOLUTE
    ../clib/printf.c                         0x00000000   Number         0  _printf_intcommon.o ABSOLUTE
    ../clib/printf.c                         0x00000000   Number         0  _printf_char_common.o ABSOLUTE
    ../clib/printf.c                         0x00000000   Number         0  noretval__2printf.o ABSOLUTE
    ../clib/printf.c                         0x00000000   Number         0  __printf.o ABSOLUTE
    ../clib/printf.c                         0x00000000   Number         0  __printf_flags.o ABSOLUTE
    ../clib/printf_percent.s                 0x00000000   Number         0  _printf_percent_end.o ABSOLUTE
    ../clib/printf_percent.s                 0x00000000   Number         0  _printf_c.o ABSOLUTE
    ../clib/printf_percent.s                 0x00000000   Number         0  _printf_percent.o ABSOLUTE
    ../clib/printf_percent.s                 0x00000000   Number         0  _printf_d.o ABSOLUTE
    ../clib/printf_percent.s                 0x00000000   Number         0  _printf_x.o ABSOLUTE
    ../clib/printf_percent.s                 0x00000000   Number         0  _printf_s.o ABSOLUTE
    ../clib/signal.c                         0x00000000   Number         0  defsig_general.o ABSOLUTE
    ../clib/signal.c                         0x00000000   Number         0  defsig_segv_inner.o ABSOLUTE
    ../clib/signal.c                         0x00000000   Number         0  __raise.o ABSOLUTE
    ../clib/signal.c                         0x00000000   Number         0  defsig_fpe_inner.o ABSOLUTE
    ../clib/signal.c                         0x00000000   Number         0  defsig_exit.o ABSOLUTE
    ../clib/signal.c                         0x00000000   Number         0  defsig_fpe_formal.o ABSOLUTE
    ../clib/signal.c                         0x00000000   Number         0  defsig_fpe_outer.o ABSOLUTE
    ../clib/signal.c                         0x00000000   Number         0  defsig_other.o ABSOLUTE
    ../clib/signal.c                         0x00000000   Number         0  defsig_rtmem_outer.o ABSOLUTE
    ../clib/signal.c                         0x00000000   Number         0  defsig_cppl_inner.o ABSOLUTE
    ../clib/signal.c                         0x00000000   Number         0  defsig_pvfn_inner.o ABSOLUTE
    ../clib/signal.c                         0x00000000   Number         0  defsig_stak_inner.o ABSOLUTE
    ../clib/signal.c                         0x00000000   Number         0  defsig_rtmem_inner.o ABSOLUTE
    ../clib/signal.c                         0x00000000   Number         0  defsig_rtred_inner.o ABSOLUTE
    ../clib/signal.c                         0x00000000   Number         0  defsig_abrt_inner.o ABSOLUTE
    ../clib/signal.c                         0x00000000   Number         0  defsig_rtmem_formal.o ABSOLUTE
    ../clib/signal.s                         0x00000000   Number         0  defsig.o ABSOLUTE
    ../clib/stdio.c                          0x00000000   Number         0  ferror_locked.o ABSOLUTE
    ../clib/stdio.c                          0x00000000   Number         0  ferror.o ABSOLUTE
    ../clib/stdlib.c                         0x00000000   Number         0  exit.o ABSOLUTE
    ../clib/string.c                         0x00000000   Number         0  strcat.o ABSOLUTE
    ../clib/string.c                         0x00000000   Number         0  strcpy.o ABSOLUTE
    ../clib/string.c                         0x00000000   Number         0  strlen.o ABSOLUTE
    ../fplib/daddsub.s                       0x00000000   Number         0  daddsub_clz.o ABSOLUTE
    ../fplib/dcmpi.s                         0x00000000   Number         0  dcmpi.o ABSOLUTE
    ../fplib/dfixu.s                         0x00000000   Number         0  dfixu.o ABSOLUTE
    ../fplib/dflt.s                          0x00000000   Number         0  dflt_clz.o ABSOLUTE
    ../fplib/dleqf.s                         0x00000000   Number         0  dleqf.o ABSOLUTE
    ../fplib/dmul.s                          0x00000000   Number         0  dmul.o ABSOLUTE
    ../fplib/dnaninf.s                       0x00000000   Number         0  dnaninf.o ABSOLUTE
    ../fplib/dretinf.s                       0x00000000   Number         0  dretinf.o ABSOLUTE
    ../fplib/drleqf.s                        0x00000000   Number         0  drleqf.o ABSOLUTE
    ../fplib/dsqrt.s                         0x00000000   Number         0  dsqrt_noumaal.o ABSOLUTE
    ../fplib/f2d.s                           0x00000000   Number         0  f2d.o ABSOLUTE
    ../fplib/faddsub.s                       0x00000000   Number         0  faddsub_clz.o ABSOLUTE
    ../fplib/fcheck1.s                       0x00000000   Number         0  fcheck1.o ABSOLUTE
    ../fplib/fcmpi.s                         0x00000000   Number         0  fcmpi.o ABSOLUTE
    ../fplib/fdiv.s                          0x00000000   Number         0  fdiv.o ABSOLUTE
    ../fplib/feqf.s                          0x00000000   Number         0  feqf.o ABSOLUTE
    ../fplib/ffix.s                          0x00000000   Number         0  ffix.o ABSOLUTE
    ../fplib/ffixu.s                         0x00000000   Number         0  ffixu.o ABSOLUTE
    ../fplib/fflt.s                          0x00000000   Number         0  fflt_clz.o ABSOLUTE
    ../fplib/fleqf.s                         0x00000000   Number         0  fleqf.o ABSOLUTE
    ../fplib/fmul.s                          0x00000000   Number         0  fmul.o ABSOLUTE
    ../fplib/fnaninf.s                       0x00000000   Number         0  fnaninf.o ABSOLUTE
    ../fplib/fpinit.s                        0x00000000   Number         0  fpinit.o ABSOLUTE
    ../fplib/fretinf.s                       0x00000000   Number         0  fretinf.o ABSOLUTE
    ../fplib/istatus.s                       0x00000000   Number         0  istatus.o ABSOLUTE
    ../fplib/retnan.s                        0x00000000   Number         0  retnan.o ABSOLUTE
    ../fplib/scalbnf.s                       0x00000000   Number         0  scalbnf.o ABSOLUTE
    ../fplib/trapv.s                         0x00000000   Number         0  trapv.o ABSOLUTE
    ../fplib/usenofp.s                       0x00000000   Number         0  usenofp.o ABSOLUTE
    ../mathlib/fpclassifyf.c                 0x00000000   Number         0  fpclassifyf.o ABSOLUTE
    ../mathlib/funder.c                      0x00000000   Number         0  funder.o ABSOLUTE
    ../mathlib/powf.c                        0x00000000   Number         0  powf.o ABSOLUTE
    ../mathlib/powf.c                        0x00000000   Number         0  powf_x.o ABSOLUTE
    ../mathlib/sqrt.c                        0x00000000   Number         0  sqrt.o ABSOLUTE
    ../mathlib/sqrt.c                        0x00000000   Number         0  sqrt_x.o ABSOLUTE
    ..\ATKNCR\atk_ncr.c                      0x00000000   Number         0  atk_ncr.o ABSOLUTE
    ..\ATKNCR\recognition.c                  0x00000000   Number         0  recognition.o ABSOLUTE
    ..\FATFS\exfuns\exfuns.c                 0x00000000   Number         0  exfuns.o ABSOLUTE
    ..\FATFS\exfuns\fattester.c              0x00000000   Number         0  fattester.o ABSOLUTE
    ..\FATFS\exfuns\mycc936.c                0x00000000   Number         0  mycc936.o ABSOLUTE
    ..\FATFS\src\diskio.c                    0x00000000   Number         0  diskio.o ABSOLUTE
    ..\FATFS\src\ff.c                        0x00000000   Number         0  ff.o ABSOLUTE
    ..\HARDWARE\24CXX\24cxx.c                0x00000000   Number         0  24cxx.o ABSOLUTE
    ..\HARDWARE\24CXX\myiic.c                0x00000000   Number         0  myiic.o ABSOLUTE
    ..\HARDWARE\KEY\key.c                    0x00000000   Number         0  key.o ABSOLUTE
    ..\HARDWARE\LCD\ILI93xx.c                0x00000000   Number         0  ili93xx.o ABSOLUTE
    ..\HARDWARE\LED\led.c                    0x00000000   Number         0  led.o ABSOLUTE
    ..\HARDWARE\SDIO\sdio_sdcard.c           0x00000000   Number         0  sdio_sdcard.o ABSOLUTE
    ..\HARDWARE\SPI\spi.c                    0x00000000   Number         0  spi.o ABSOLUTE
    ..\HARDWARE\TOUCH\ctiic.c                0x00000000   Number         0  ctiic.o ABSOLUTE
    ..\HARDWARE\TOUCH\ft5206.c               0x00000000   Number         0  ft5206.o ABSOLUTE
    ..\HARDWARE\TOUCH\gt9147.c               0x00000000   Number         0  gt9147.o ABSOLUTE
    ..\HARDWARE\TOUCH\ott2001a.c             0x00000000   Number         0  ott2001a.o ABSOLUTE
    ..\HARDWARE\TOUCH\touch.c                0x00000000   Number         0  touch.o ABSOLUTE
    ..\HARDWARE\W25QXX\w25qxx.c              0x00000000   Number         0  w25qxx.o ABSOLUTE
    ..\MALLOC\malloc.c                       0x00000000   Number         0  malloc.o ABSOLUTE
    ..\SYSTEM\delay\delay.c                  0x00000000   Number         0  delay.o ABSOLUTE
    ..\SYSTEM\sys\sys.c                      0x00000000   Number         0  sys.o ABSOLUTE
    ..\SYSTEM\usart\usart.c                  0x00000000   Number         0  usart.o ABSOLUTE
    ..\TEXT\fontupd.c                        0x00000000   Number         0  fontupd.o ABSOLUTE
    ..\TEXT\text.c                           0x00000000   Number         0  text.o ABSOLUTE
    ..\\SYSTEM\\sys\\sys.c                   0x00000000   Number         0  sys.o ABSOLUTE
    dc.s                                     0x00000000   Number         0  dc.o ABSOLUTE
    startup_stm32f10x_hd.s                   0x00000000   Number         0  startup_stm32f10x_hd.o ABSOLUTE
    test.c                                   0x00000000   Number         0  test.o ABSOLUTE
    RESET                                    0x08000000   Section      304  startup_stm32f10x_hd.o(RESET)
    !!!main                                  0x08000130   Section        8  __main.o(!!!main)
    !!!scatter                               0x08000138   Section       52  __scatter.o(!!!scatter)
    !!handler_copy                           0x0800016c   Section       26  __scatter_copy.o(!!handler_copy)
    !!handler_zi                             0x08000188   Section       28  __scatter_zi.o(!!handler_zi)
    .ARM.Collect$$_printf_percent$$00000000  0x080001a4   Section        0  _printf_percent.o(.ARM.Collect$$_printf_percent$$00000000)
    .ARM.Collect$$_printf_percent$$00000009  0x080001a4   Section        6  _printf_d.o(.ARM.Collect$$_printf_percent$$00000009)
    .ARM.Collect$$_printf_percent$$0000000C  0x080001aa   Section        6  _printf_x.o(.ARM.Collect$$_printf_percent$$0000000C)
    .ARM.Collect$$_printf_percent$$00000014  0x080001b0   Section        6  _printf_s.o(.ARM.Collect$$_printf_percent$$00000014)
    .ARM.Collect$$_printf_percent$$00000017  0x080001b6   Section        4  _printf_percent_end.o(.ARM.Collect$$_printf_percent$$00000017)
    .ARM.Collect$$libinit$$00000000          0x080001ba   Section        2  libinit.o(.ARM.Collect$$libinit$$00000000)
    .ARM.Collect$$libinit$$00000002          0x080001bc   Section        0  libinit2.o(.ARM.Collect$$libinit$$00000002)
    .ARM.Collect$$libinit$$00000004          0x080001bc   Section        0  libinit2.o(.ARM.Collect$$libinit$$00000004)
    .ARM.Collect$$libinit$$0000000A          0x080001bc   Section        0  libinit2.o(.ARM.Collect$$libinit$$0000000A)
    .ARM.Collect$$libinit$$0000000C          0x080001bc   Section        0  libinit2.o(.ARM.Collect$$libinit$$0000000C)
    .ARM.Collect$$libinit$$0000000E          0x080001bc   Section        0  libinit2.o(.ARM.Collect$$libinit$$0000000E)
    .ARM.Collect$$libinit$$00000011          0x080001bc   Section        0  libinit2.o(.ARM.Collect$$libinit$$00000011)
    .ARM.Collect$$libinit$$00000013          0x080001bc   Section        0  libinit2.o(.ARM.Collect$$libinit$$00000013)
    .ARM.Collect$$libinit$$00000015          0x080001bc   Section        0  libinit2.o(.ARM.Collect$$libinit$$00000015)
    .ARM.Collect$$libinit$$00000017          0x080001bc   Section        0  libinit2.o(.ARM.Collect$$libinit$$00000017)
    .ARM.Collect$$libinit$$00000019          0x080001bc   Section        0  libinit2.o(.ARM.Collect$$libinit$$00000019)
    .ARM.Collect$$libinit$$0000001B          0x080001bc   Section        0  libinit2.o(.ARM.Collect$$libinit$$0000001B)
    .ARM.Collect$$libinit$$0000001D          0x080001bc   Section        0  libinit2.o(.ARM.Collect$$libinit$$0000001D)
    .ARM.Collect$$libinit$$0000001F          0x080001bc   Section        0  libinit2.o(.ARM.Collect$$libinit$$0000001F)
    .ARM.Collect$$libinit$$00000021          0x080001bc   Section        0  libinit2.o(.ARM.Collect$$libinit$$00000021)
    .ARM.Collect$$libinit$$00000023          0x080001bc   Section        0  libinit2.o(.ARM.Collect$$libinit$$00000023)
    .ARM.Collect$$libinit$$00000025          0x080001bc   Section        0  libinit2.o(.ARM.Collect$$libinit$$00000025)
    .ARM.Collect$$libinit$$0000002C          0x080001bc   Section        0  libinit2.o(.ARM.Collect$$libinit$$0000002C)
    .ARM.Collect$$libinit$$0000002E          0x080001bc   Section        0  libinit2.o(.ARM.Collect$$libinit$$0000002E)
    .ARM.Collect$$libinit$$00000030          0x080001bc   Section        0  libinit2.o(.ARM.Collect$$libinit$$00000030)
    .ARM.Collect$$libinit$$00000032          0x080001bc   Section        0  libinit2.o(.ARM.Collect$$libinit$$00000032)
    .ARM.Collect$$libinit$$00000033          0x080001bc   Section        2  libinit2.o(.ARM.Collect$$libinit$$00000033)
    .ARM.Collect$$libshutdown$$00000000      0x080001be   Section        2  libshutdown.o(.ARM.Collect$$libshutdown$$00000000)
    .ARM.Collect$$libshutdown$$00000003      0x080001c0   Section        0  libshutdown2.o(.ARM.Collect$$libshutdown$$00000003)
    .ARM.Collect$$libshutdown$$00000006      0x080001c0   Section        0  libshutdown2.o(.ARM.Collect$$libshutdown$$00000006)
    .ARM.Collect$$libshutdown$$00000009      0x080001c0   Section        0  libshutdown2.o(.ARM.Collect$$libshutdown$$00000009)
    .ARM.Collect$$libshutdown$$0000000B      0x080001c0   Section        0  libshutdown2.o(.ARM.Collect$$libshutdown$$0000000B)
    .ARM.Collect$$libshutdown$$0000000E      0x080001c0   Section        0  libshutdown2.o(.ARM.Collect$$libshutdown$$0000000E)
    .ARM.Collect$$libshutdown$$0000000F      0x080001c0   Section        2  libshutdown2.o(.ARM.Collect$$libshutdown$$0000000F)
    .ARM.Collect$$rtentry$$00000000          0x080001c2   Section        0  __rtentry.o(.ARM.Collect$$rtentry$$00000000)
    .ARM.Collect$$rtentry$$00000002          0x080001c2   Section        0  __rtentry2.o(.ARM.Collect$$rtentry$$00000002)
    .ARM.Collect$$rtentry$$00000004          0x080001c2   Section        6  __rtentry4.o(.ARM.Collect$$rtentry$$00000004)
    .ARM.Collect$$rtentry$$00000009          0x080001c8   Section        0  __rtentry2.o(.ARM.Collect$$rtentry$$00000009)
    .ARM.Collect$$rtentry$$0000000A          0x080001c8   Section        4  __rtentry2.o(.ARM.Collect$$rtentry$$0000000A)
    .ARM.Collect$$rtentry$$0000000C          0x080001cc   Section        0  __rtentry2.o(.ARM.Collect$$rtentry$$0000000C)
    .ARM.Collect$$rtentry$$0000000D          0x080001cc   Section        8  __rtentry2.o(.ARM.Collect$$rtentry$$0000000D)
    .ARM.Collect$$rtexit$$00000000           0x080001d4   Section        2  rtexit.o(.ARM.Collect$$rtexit$$00000000)
    .ARM.Collect$$rtexit$$00000002           0x080001d6   Section        0  rtexit2.o(.ARM.Collect$$rtexit$$00000002)
    .ARM.Collect$$rtexit$$00000003           0x080001d6   Section        4  rtexit2.o(.ARM.Collect$$rtexit$$00000003)
    .ARM.Collect$$rtexit$$00000004           0x080001da   Section        6  rtexit2.o(.ARM.Collect$$rtexit$$00000004)
    .text                                    0x080001e0   Section       52  startup_stm32f10x_hd.o(.text)
    .text                                    0x08000214   Section        0  recognition.o(.text)
    .text                                    0x08001dd4   Section        2  use_no_semi_2.o(.text)
    .text                                    0x08001dd8   Section        0  noretval__2printf.o(.text)
    .text                                    0x08001df0   Section        0  __printf.o(.text)
    .text                                    0x08001e58   Section        0  _printf_str.o(.text)
    .text                                    0x08001eac   Section        0  _printf_dec.o(.text)
    .text                                    0x08001f24   Section        0  _printf_hex_int.o(.text)
    .text                                    0x08001f7c   Section      138  rt_memcpy_v6.o(.text)
    .text                                    0x08002008   Section      128  strcmpv7m.o(.text)
    .text                                    0x08002088   Section        0  heapauxi.o(.text)
    .text                                    0x0800208e   Section        2  use_no_semi.o(.text)
    .text                                    0x08002090   Section        0  _rserrno.o(.text)
    .text                                    0x080020a6   Section        0  _printf_intcommon.o(.text)
    .text                                    0x08002158   Section        0  _printf_char.o(.text)
    .text                                    0x08002184   Section        0  _printf_char_file.o(.text)
    .text                                    0x080021a8   Section      100  rt_memcpy_w.o(.text)
    .text                                    0x0800220c   Section        8  rt_errno_addr_intlibspace.o(.text)
    .text                                    0x08002214   Section        0  _printf_char_common.o(.text)
    _printf_input_char                       0x08002215   Thumb Code    10  _printf_char_common.o(.text)
    .text                                    0x08002244   Section        0  ferror.o(.text)
    .text                                    0x0800224c   Section        8  libspace.o(.text)
    .text                                    0x08002254   Section       74  sys_stackheap_outer.o(.text)
    .text                                    0x0800229e   Section        0  exit.o(.text)
    i.AT24CXX_Init                           0x080022aa   Section        0  24cxx.o(i.AT24CXX_Init)
    i.AT24CXX_Read                           0x080022b2   Section        0  24cxx.o(i.AT24CXX_Read)
    i.AT24CXX_ReadOneByte                    0x080022d4   Section        0  24cxx.o(i.AT24CXX_ReadOneByte)
    i.AT24CXX_Write                          0x0800232c   Section        0  24cxx.o(i.AT24CXX_Write)
    i.AT24CXX_WriteOneByte                   0x08002350   Section        0  24cxx.o(i.AT24CXX_WriteOneByte)
    i.CT_Delay                               0x080023a0   Section        0  ctiic.o(i.CT_Delay)
    i.CT_IIC_Ack                             0x080023ac   Section        0  ctiic.o(i.CT_IIC_Ack)
    i.CT_IIC_Init                            0x08002400   Section        0  ctiic.o(i.CT_IIC_Init)
    i.CT_IIC_NAck                            0x08002470   Section        0  ctiic.o(i.CT_IIC_NAck)
    i.CT_IIC_Read_Byte                       0x080024c4   Section        0  ctiic.o(i.CT_IIC_Read_Byte)
    i.CT_IIC_Send_Byte                       0x08002534   Section        0  ctiic.o(i.CT_IIC_Send_Byte)
    i.CT_IIC_Start                           0x08002598   Section        0  ctiic.o(i.CT_IIC_Start)
    i.CT_IIC_Stop                            0x080025e4   Section        0  ctiic.o(i.CT_IIC_Stop)
    i.CT_IIC_Wait_Ack                        0x0800262c   Section        0  ctiic.o(i.CT_IIC_Wait_Ack)
    i.CmdError                               0x08002690   Section        0  sdio_sdcard.o(i.CmdError)
    i.CmdResp1Error                          0x080026c4   Section        0  sdio_sdcard.o(i.CmdResp1Error)
    i.CmdResp2Error                          0x0800271c   Section        0  sdio_sdcard.o(i.CmdResp2Error)
    i.CmdResp3Error                          0x08002778   Section        0  sdio_sdcard.o(i.CmdResp3Error)
    i.CmdResp6Error                          0x080027b0   Section        0  sdio_sdcard.o(i.CmdResp6Error)
    i.CmdResp7Error                          0x08002844   Section        0  sdio_sdcard.o(i.CmdResp7Error)
    i.FT5206_Init                            0x08002898   Section        0  ft5206.o(i.FT5206_Init)
    i.FT5206_RD_Reg                          0x08002974   Section        0  ft5206.o(i.FT5206_RD_Reg)
    i.FT5206_Scan                            0x080029cc   Section        0  ft5206.o(i.FT5206_Scan)
    i.FT5206_WR_Reg                          0x08002b68   Section        0  ft5206.o(i.FT5206_WR_Reg)
    i.FindSCR                                0x08002bbc   Section        0  sdio_sdcard.o(i.FindSCR)
    i.GT9147_Init                            0x08002d08   Section        0  gt9147.o(i.GT9147_Init)
    i.GT9147_RD_Reg                          0x08002e38   Section        0  gt9147.o(i.GT9147_RD_Reg)
    i.GT9147_Scan                            0x08002e9c   Section        0  gt9147.o(i.GT9147_Scan)
    i.GT9147_Send_Cfg                        0x0800309c   Section        0  gt9147.o(i.GT9147_Send_Cfg)
    i.GT9147_WR_Reg                          0x080030f8   Section        0  gt9147.o(i.GT9147_WR_Reg)
    i.Get_HzMat                              0x08003154   Section        0  text.o(i.Get_HzMat)
    i.IIC_Ack                                0x08003234   Section        0  myiic.o(i.IIC_Ack)
    i.IIC_Init                               0x08003284   Section        0  myiic.o(i.IIC_Init)
    i.IIC_NAck                               0x080032c0   Section        0  myiic.o(i.IIC_NAck)
    i.IIC_Read_Byte                          0x08003310   Section        0  myiic.o(i.IIC_Read_Byte)
    i.IIC_Send_Byte                          0x08003380   Section        0  myiic.o(i.IIC_Send_Byte)
    i.IIC_Start                              0x080033e8   Section        0  myiic.o(i.IIC_Start)
    i.IIC_Stop                               0x08003434   Section        0  myiic.o(i.IIC_Stop)
    i.IIC_Wait_Ack                           0x08003480   Section        0  myiic.o(i.IIC_Wait_Ack)
    i.INTX_DISABLE                           0x080034e4   Section        0  sys.o(i.INTX_DISABLE)
    i.INTX_ENABLE                            0x080034e8   Section        0  sys.o(i.INTX_ENABLE)
    i.IsCardProgramming                      0x080034ec   Section        0  sdio_sdcard.o(i.IsCardProgramming)
    i.KEY_Init                               0x0800357c   Section        0  key.o(i.KEY_Init)
    i.KEY_Scan                               0x080035e8   Section        0  key.o(i.KEY_Scan)
    i.LCD_Clear                              0x0800368c   Section        0  ili93xx.o(i.LCD_Clear)
    i.LCD_Display_Dir                        0x080036f8   Section        0  ili93xx.o(i.LCD_Display_Dir)
    i.LCD_DrawLine                           0x080038b8   Section        0  ili93xx.o(i.LCD_DrawLine)
    i.LCD_DrawPoint                          0x08003968   Section        0  ili93xx.o(i.LCD_DrawPoint)
    i.LCD_DrawRectangle                      0x0800398c   Section        0  ili93xx.o(i.LCD_DrawRectangle)
    i.LCD_Draw_Circle                        0x080039c8   Section        0  ili93xx.o(i.LCD_Draw_Circle)
    i.LCD_Fast_DrawPoint                     0x08003a60   Section        0  ili93xx.o(i.LCD_Fast_DrawPoint)
    i.LCD_Fill                               0x08003bdc   Section        0  ili93xx.o(i.LCD_Fill)
    i.LCD_Init                               0x08003c98   Section        0  ili93xx.o(i.LCD_Init)
    i.LCD_Pow                                0x08007468   Section        0  ili93xx.o(i.LCD_Pow)
    i.LCD_RD_DATA                            0x08007480   Section        0  ili93xx.o(i.LCD_RD_DATA)
    i.LCD_ReadReg                            0x08007494   Section        0  ili93xx.o(i.LCD_ReadReg)
    i.LCD_SSD_BackLightSet                   0x080074ac   Section        0  ili93xx.o(i.LCD_SSD_BackLightSet)
    i.LCD_Scan_Dir                           0x08007500   Section        0  ili93xx.o(i.LCD_Scan_Dir)
    i.LCD_SetCursor                          0x080077ec   Section        0  ili93xx.o(i.LCD_SetCursor)
    i.LCD_ShowChar                           0x08007994   Section        0  ili93xx.o(i.LCD_ShowChar)
    i.LCD_ShowNum                            0x08007abc   Section        0  ili93xx.o(i.LCD_ShowNum)
    i.LCD_ShowString                         0x08007b50   Section        0  ili93xx.o(i.LCD_ShowString)
    i.LCD_WR_DATA                            0x08007bb8   Section        0  ili93xx.o(i.LCD_WR_DATA)
    i.LCD_WR_REG                             0x08007bc4   Section        0  ili93xx.o(i.LCD_WR_REG)
    i.LCD_WriteRAM_Prepare                   0x08007bd0   Section        0  ili93xx.o(i.LCD_WriteRAM_Prepare)
    i.LCD_WriteReg                           0x08007be4   Section        0  ili93xx.o(i.LCD_WriteReg)
    i.LED_Init                               0x08007bf4   Section        0  led.o(i.LED_Init)
    i.MYRCC_DeInit                           0x08007c64   Section        0  sys.o(i.MYRCC_DeInit)
    i.MY_NVIC_Init                           0x08007ccc   Section        0  sys.o(i.MY_NVIC_Init)
    i.MY_NVIC_PriorityGroupConfig            0x08007d44   Section        0  sys.o(i.MY_NVIC_PriorityGroupConfig)
    i.MY_NVIC_SetVectorTable                 0x08007d6c   Section        0  sys.o(i.MY_NVIC_SetVectorTable)
    i.OTT2001A_Init                          0x08007d80   Section        0  ott2001a.o(i.OTT2001A_Init)
    i.OTT2001A_RD_Reg                        0x08007e20   Section        0  ott2001a.o(i.OTT2001A_RD_Reg)
    i.OTT2001A_Scan                          0x08007e84   Section        0  ott2001a.o(i.OTT2001A_Scan)
    i.OTT2001A_SensorControl                 0x08008064   Section        0  ott2001a.o(i.OTT2001A_SensorControl)
    i.OTT2001A_WR_Reg                        0x08008080   Section        0  ott2001a.o(i.OTT2001A_WR_Reg)
    i.SDEnWideBus                            0x080080dc   Section        0  sdio_sdcard.o(i.SDEnWideBus)
    i.SDIO_Clock_Set                         0x0800815c   Section        0  sdio_sdcard.o(i.SDIO_Clock_Set)
    i.SDIO_IRQHandler                        0x08008170   Section        0  sdio_sdcard.o(i.SDIO_IRQHandler)
    i.SDIO_Send_Cmd                          0x08008178   Section        0  sdio_sdcard.o(i.SDIO_Send_Cmd)
    i.SDIO_Send_Data_Cfg                     0x080081a0   Section        0  sdio_sdcard.o(i.SDIO_Send_Data_Cfg)
    i.SD_DMA_Config                          0x080081d4   Section        0  sdio_sdcard.o(i.SD_DMA_Config)
    i.SD_EnableWideBusOperation              0x0800826c   Section        0  sdio_sdcard.o(i.SD_EnableWideBusOperation)
    i.SD_GetCardInfo                         0x080082d4   Section        0  sdio_sdcard.o(i.SD_GetCardInfo)
    i.SD_Init                                0x080085e8   Section        0  sdio_sdcard.o(i.SD_Init)
    i.SD_InitializeCards                     0x080086f4   Section        0  sdio_sdcard.o(i.SD_InitializeCards)
    i.SD_PowerON                             0x080087f8   Section        0  sdio_sdcard.o(i.SD_PowerON)
    i.SD_ProcessIRQSrc                       0x08008970   Section        0  sdio_sdcard.o(i.SD_ProcessIRQSrc)
    i.SD_ReadBlock                           0x08008ab8   Section        0  sdio_sdcard.o(i.SD_ReadBlock)
    i.SD_ReadDisk                            0x08008cd8   Section        0  sdio_sdcard.o(i.SD_ReadDisk)
    i.SD_ReadMultiBlocks                     0x08008d70   Section        0  sdio_sdcard.o(i.SD_ReadMultiBlocks)
    i.SD_SelectDeselect                      0x08009008   Section        0  sdio_sdcard.o(i.SD_SelectDeselect)
    i.SD_SetDeviceMode                       0x08009020   Section        0  sdio_sdcard.o(i.SD_SetDeviceMode)
    i.SD_WriteBlock                          0x08009038   Section        0  sdio_sdcard.o(i.SD_WriteBlock)
    i.SD_WriteDisk                           0x08009350   Section        0  sdio_sdcard.o(i.SD_WriteDisk)
    i.SD_WriteMultiBlocks                    0x080093e8   Section        0  sdio_sdcard.o(i.SD_WriteMultiBlocks)
    i.SPI2_Init                              0x08009738   Section        0  spi.o(i.SPI2_Init)
    i.SPI2_ReadWriteByte                     0x080097ec   Section        0  spi.o(i.SPI2_ReadWriteByte)
    i.SPI2_SetSpeed                          0x08009844   Section        0  spi.o(i.SPI2_SetSpeed)
    i.Show_Font                              0x08009870   Section        0  text.o(i.Show_Font)
    i.Show_Str                               0x08009938   Section        0  text.o(i.Show_Str)
    i.Stm32_Clock_Init                       0x080099fc   Section        0  sys.o(i.Stm32_Clock_Init)
    i.TP_Adj_Info_Show                       0x08009a8c   Section        0  touch.o(i.TP_Adj_Info_Show)
    i.TP_Adjust                              0x08009c34   Section        0  touch.o(i.TP_Adjust)
    i.TP_Drow_Touch_Point                    0x0800a490   Section        0  touch.o(i.TP_Drow_Touch_Point)
    i.TP_Get_Adjdata                         0x0800a500   Section        0  touch.o(i.TP_Get_Adjdata)
    i.TP_Init                                0x0800a550   Section        0  touch.o(i.TP_Init)
    i.TP_Read_AD                             0x0800a694   Section        0  touch.o(i.TP_Read_AD)
    i.TP_Read_XOY                            0x0800a728   Section        0  touch.o(i.TP_Read_XOY)
    i.TP_Read_XY                             0x0800a7a0   Section        0  touch.o(i.TP_Read_XY)
    i.TP_Read_XY2                            0x0800a7d0   Section        0  touch.o(i.TP_Read_XY2)
    i.TP_Save_Adjdata                        0x0800a890   Section        0  touch.o(i.TP_Save_Adjdata)
    i.TP_Scan                                0x0800a8ac   Section        0  touch.o(i.TP_Scan)
    i.TP_Write_Byte                          0x0800a9bc   Section        0  touch.o(i.TP_Write_Byte)
    i.USART1_IRQHandler                      0x0800aa08   Section        0  usart.o(i.USART1_IRQHandler)
    i.W25QXX_Erase_Sector                    0x0800aa8c   Section        0  w25qxx.o(i.W25QXX_Erase_Sector)
    i.W25QXX_Init                            0x0800aae4   Section        0  w25qxx.o(i.W25QXX_Init)
    i.W25QXX_Read                            0x0800ab34   Section        0  w25qxx.o(i.W25QXX_Read)
    i.W25QXX_ReadID                          0x0800ab84   Section        0  w25qxx.o(i.W25QXX_ReadID)
    i.W25QXX_ReadSR                          0x0800abcc   Section        0  w25qxx.o(i.W25QXX_ReadSR)
    i.W25QXX_Wait_Busy                       0x0800abf8   Section        0  w25qxx.o(i.W25QXX_Wait_Busy)
    i.W25QXX_Write                           0x0800ac0c   Section        0  w25qxx.o(i.W25QXX_Write)
    i.W25QXX_Write_Enable                    0x0800acc4   Section        0  w25qxx.o(i.W25QXX_Write_Enable)
    i.W25QXX_Write_NoCheck                   0x0800ace4   Section        0  w25qxx.o(i.W25QXX_Write_NoCheck)
    i.W25QXX_Write_Page                      0x0800ad2c   Section        0  w25qxx.o(i.W25QXX_Write_Page)
    i.__ARM_fpclassifyf                      0x0800ad80   Section        0  fpclassifyf.o(i.__ARM_fpclassifyf)
    i.__mathlib_flt_divzero                  0x0800ada6   Section        0  funder.o(i.__mathlib_flt_divzero)
    i.__mathlib_flt_infnan2                  0x0800adb0   Section        0  funder.o(i.__mathlib_flt_infnan2)
    i.__mathlib_flt_invalid                  0x0800adb4   Section        0  funder.o(i.__mathlib_flt_invalid)
    i.__mathlib_flt_overflow                 0x0800adbc   Section        0  funder.o(i.__mathlib_flt_overflow)
    i.__mathlib_flt_underflow                0x0800adc6   Section        0  funder.o(i.__mathlib_flt_underflow)
    i._sys_exit                              0x0800add0   Section        0  usart.o(i._sys_exit)
    i.alientek_ncr_free                      0x0800add6   Section        0  atk_ncr.o(i.alientek_ncr_free)
    i.alientek_ncr_malloc                    0x0800ade4   Section        0  atk_ncr.o(i.alientek_ncr_malloc)
    i.alientek_ncr_memset                    0x0800adf2   Section        0  atk_ncr.o(i.alientek_ncr_memset)
    i.check_fs                               0x0800ae08   Section        0  ff.o(i.check_fs)
    check_fs                                 0x0800ae09   Thumb Code   140  ff.o(i.check_fs)
    i.convert_from_bytes_to_power_of_two     0x0800ae98   Section        0  sdio_sdcard.o(i.convert_from_bytes_to_power_of_two)
    i.delay_init                             0x0800aeac   Section        0  delay.o(i.delay_init)
    i.delay_ms                               0x0800aeec   Section        0  delay.o(i.delay_ms)
    i.delay_us                               0x0800af28   Section        0  delay.o(i.delay_us)
    i.disk_initialize                        0x0800af64   Section        0  diskio.o(i.disk_initialize)
    i.disk_read                              0x0800af9c   Section        0  diskio.o(i.disk_read)
    i.disk_status                            0x0800b016   Section        0  diskio.o(i.disk_status)
    i.disk_write                             0x0800b01c   Section        0  diskio.o(i.disk_write)
    i.exfuns_init                            0x0800b098   Section        0  exfuns.o(i.exfuns_init)
    i.f_mount                                0x0800b11c   Section        0  ff.o(i.f_mount)
    i.find_volume                            0x0800b178   Section        0  ff.o(i.find_volume)
    find_volume                              0x0800b179   Thumb Code   900  ff.o(i.find_volume)
    i.font_init                              0x0800b50c   Section        0  fontupd.o(i.font_init)
    i.fputc                                  0x0800b550   Section        0  usart.o(i.fputc)
    i.get_ldnumber                           0x0800b56c   Section        0  ff.o(i.get_ldnumber)
    get_ldnumber                             0x0800b56d   Thumb Code    74  ff.o(i.get_ldnumber)
    i.gui_draw_hline                         0x0800b5b6   Section        0  test.o(i.gui_draw_hline)
    i.gui_fill_circle                        0x0800b5da   Section        0  test.o(i.gui_fill_circle)
    i.lcd_draw_bline                         0x0800b68a   Section        0  test.o(i.lcd_draw_bline)
    i.main                                   0x0800b760   Section        0  test.o(i.main)
    i.move_window                            0x0800bc00   Section        0  ff.o(i.move_window)
    move_window                              0x0800bc01   Thumb Code    52  ff.o(i.move_window)
    i.my_mem_free                            0x0800bc34   Section        0  malloc.o(i.my_mem_free)
    i.my_mem_init                            0x0800bca0   Section        0  malloc.o(i.my_mem_init)
    i.my_mem_malloc                          0x0800bce4   Section        0  malloc.o(i.my_mem_malloc)
    i.my_mem_perused                         0x0800bd8c   Section        0  malloc.o(i.my_mem_perused)
    i.myfree                                 0x0800bdcc   Section        0  malloc.o(i.myfree)
    i.mymalloc                               0x0800bdf0   Section        0  malloc.o(i.mymalloc)
    i.mymemset                               0x0800be18   Section        0  malloc.o(i.mymemset)
    i.powf                                   0x0800be2c   Section        0  powf.o(i.powf)
    i.sqrt                                   0x0800c410   Section        0  sqrt.o(i.sqrt)
    i.sync_window                            0x0800c45c   Section        0  ff.o(i.sync_window)
    sync_window                              0x0800c45d   Thumb Code    82  ff.o(i.sync_window)
    i.uart_init                              0x0800c4b0   Section        0  usart.o(i.uart_init)
    x$fpl$dadd                               0x0800c58c   Section      336  daddsub_clz.o(x$fpl$dadd)
    _dadd1                                   0x0800c59d   Thumb Code     0  daddsub_clz.o(x$fpl$dadd)
    x$fpl$dcmpinf                            0x0800c6dc   Section       24  dcmpi.o(x$fpl$dcmpinf)
    x$fpl$dfixu                              0x0800c6f4   Section       90  dfixu.o(x$fpl$dfixu)
    x$fpl$dflt                               0x0800c74e   Section       46  dflt_clz.o(x$fpl$dflt)
    x$fpl$dfltu                              0x0800c77c   Section       38  dflt_clz.o(x$fpl$dfltu)
    x$fpl$dleqf                              0x0800c7a4   Section      120  dleqf.o(x$fpl$dleqf)
    x$fpl$dmul                               0x0800c81c   Section      340  dmul.o(x$fpl$dmul)
    x$fpl$dnaninf                            0x0800c970   Section      156  dnaninf.o(x$fpl$dnaninf)
    x$fpl$dretinf                            0x0800ca0c   Section       12  dretinf.o(x$fpl$dretinf)
    x$fpl$drleqf                             0x0800ca18   Section      108  drleqf.o(x$fpl$drleqf)
    x$fpl$drsb                               0x0800ca84   Section       22  daddsub_clz.o(x$fpl$drsb)
    x$fpl$dsqrt                              0x0800ca9c   Section      460  dsqrt_noumaal.o(x$fpl$dsqrt)
    x$fpl$dsub                               0x0800cc68   Section      468  daddsub_clz.o(x$fpl$dsub)
    _dsub1                                   0x0800cc79   Thumb Code     0  daddsub_clz.o(x$fpl$dsub)
    x$fpl$f2d                                0x0800ce3c   Section       86  f2d.o(x$fpl$f2d)
    x$fpl$fadd                               0x0800ce94   Section      196  faddsub_clz.o(x$fpl$fadd)
    _fadd1                                   0x0800cea3   Thumb Code     0  faddsub_clz.o(x$fpl$fadd)
    x$fpl$fcheck1                            0x0800cf58   Section       12  fcheck1.o(x$fpl$fcheck1)
    x$fpl$fcmpinf                            0x0800cf64   Section       24  fcmpi.o(x$fpl$fcmpinf)
    x$fpl$fdiv                               0x0800cf7c   Section      388  fdiv.o(x$fpl$fdiv)
    _fdiv1                                   0x0800cf7d   Thumb Code     0  fdiv.o(x$fpl$fdiv)
    x$fpl$ffix                               0x0800d100   Section       54  ffix.o(x$fpl$ffix)
    x$fpl$ffixr                              0x0800d138   Section       82  ffix.o(x$fpl$ffixr)
    x$fpl$ffixu                              0x0800d18c   Section       62  ffixu.o(x$fpl$ffixu)
    x$fpl$fflt                               0x0800d1cc   Section       48  fflt_clz.o(x$fpl$fflt)
    x$fpl$ffltu                              0x0800d1fc   Section       38  fflt_clz.o(x$fpl$ffltu)
    x$fpl$fleqf                              0x0800d224   Section      104  fleqf.o(x$fpl$fleqf)
    x$fpl$fmul                               0x0800d28c   Section      258  fmul.o(x$fpl$fmul)
    x$fpl$fnaninf                            0x0800d38e   Section      140  fnaninf.o(x$fpl$fnaninf)
    x$fpl$fretinf                            0x0800d41a   Section       10  fretinf.o(x$fpl$fretinf)
    x$fpl$frsb                               0x0800d424   Section       20  faddsub_clz.o(x$fpl$frsb)
    x$fpl$fsub                               0x0800d438   Section      234  faddsub_clz.o(x$fpl$fsub)
    _fsub1                                   0x0800d447   Thumb Code     0  faddsub_clz.o(x$fpl$fsub)
    x$fpl$retnan                             0x0800d522   Section      100  retnan.o(x$fpl$retnan)
    x$fpl$scalbnf                            0x0800d586   Section       76  scalbnf.o(x$fpl$scalbnf)
    x$fpl$trapveneer                         0x0800d5d2   Section       48  trapv.o(x$fpl$trapveneer)
    .constdata                               0x0800d602   Section     6080  ili93xx.o(.constdata)
    x$fpl$usenofp                            0x0800d602   Section        0  usenofp.o(x$fpl$usenofp)
    .constdata                               0x0800edc2   Section       10  ft5206.o(.constdata)
    .constdata                               0x0800edcc   Section      194  gt9147.o(.constdata)
    .constdata                               0x0800ee8e   Section       10  ott2001a.o(.constdata)
    .constdata                               0x0800ee98   Section        4  touch.o(.constdata)
    .constdata                               0x0800ee9c   Section       24  malloc.o(.constdata)
    .constdata                               0x0800eeb4   Section    33934  recognition.o(.constdata)
    .constdata                               0x08017342   Section       40  _printf_hex_int.o(.constdata)
    uc_hextab                                0x08017342   Data          20  _printf_hex_int.o(.constdata)
    lc_hextab                                0x08017356   Data          20  _printf_hex_int.o(.constdata)
    .constdata                               0x0801736c   Section      320  powf.o(.constdata)
    table                                    0x0801736c   Data         128  powf.o(.constdata)
    powersof2to1over16top                    0x080173ec   Data          64  powf.o(.constdata)
    powersof2to1over16bot                    0x0801742c   Data          64  powf.o(.constdata)
    powersof2to1over16all                    0x0801746c   Data          64  powf.o(.constdata)
    .conststring                             0x080174ac   Section      121  touch.o(.conststring)
    .data                                    0x20000000   Section        4  delay.o(.data)
    fac_us                                   0x20000000   Data           1  delay.o(.data)
    fac_ms                                   0x20000002   Data           2  delay.o(.data)
    .data                                    0x20000004   Section        6  usart.o(.data)
    .data                                    0x2000000a   Section        4  ili93xx.o(.data)
    .data                                    0x2000000e   Section        1  key.o(.data)
    key_up                                   0x2000000e   Data           1  key.o(.data)
    .data                                    0x20000010   Section       16  sdio_sdcard.o(.data)
    CardType                                 0x20000010   Data           1  sdio_sdcard.o(.data)
    RCA                                      0x20000014   Data           4  sdio_sdcard.o(.data)
    DeviceMode                               0x20000018   Data           1  sdio_sdcard.o(.data)
    StopCondition                            0x20000019   Data           1  sdio_sdcard.o(.data)
    .data                                    0x20000020   Section        2  w25qxx.o(.data)
    .data                                    0x20000022   Section        1  ft5206.o(.data)
    t                                        0x20000022   Data           1  ft5206.o(.data)
    .data                                    0x20000023   Section        1  gt9147.o(.data)
    t                                        0x20000023   Data           1  gt9147.o(.data)
    .data                                    0x20000024   Section        1  ott2001a.o(.data)
    t                                        0x20000024   Data           1  ott2001a.o(.data)
    .data                                    0x20000028   Section       54  touch.o(.data)
    .data                                    0x20000060   Section       28  malloc.o(.data)
    .data                                    0x2000007c   Section        2  diskio.o(.data)
    .data                                    0x20000080   Section       10  ff.o(.data)
    FatFs                                    0x20000080   Data           8  ff.o(.data)
    Fsid                                     0x20000088   Data           2  ff.o(.data)
    .data                                    0x2000008c   Section       28  exfuns.o(.data)
    .data                                    0x200000a8   Section       28  recognition.o(.data)
    .bss                                     0x200000c4   Section      800  test.o(.bss)
    .bss                                     0x200003e4   Section      200  usart.o(.bss)
    .bss                                     0x200004ac   Section       14  ili93xx.o(.bss)
    .bss                                     0x200004c0   Section      632  sdio_sdcard.o(.bss)
    CSD_Tab                                  0x200004c0   Data          16  sdio_sdcard.o(.bss)
    CID_Tab                                  0x200004d0   Data          16  sdio_sdcard.o(.bss)
    .bss                                     0x20000738   Section     4096  w25qxx.o(.bss)
    .bss                                     0x20001740   Section    43520  malloc.o(.bss)
    .bss                                     0x2000c140   Section       33  fontupd.o(.bss)
    .bss                                     0x2000c164   Section       40  recognition.o(.bss)
    .bss                                     0x2000c18c   Section       96  libspace.o(.bss)
    HEAP                                     0x2000c1f0   Section        0  startup_stm32f10x_hd.o(HEAP)
    STACK                                    0x2000c1f0   Section     1024  startup_stm32f10x_hd.o(STACK)
    Heap_Mem                                 0x2000c1f0   Data           0  startup_stm32f10x_hd.o(HEAP)
    Stack_Mem                                0x2000c1f0   Data        1024  startup_stm32f10x_hd.o(STACK)
    __initial_sp                             0x2000c5f0   Data           0  startup_stm32f10x_hd.o(STACK)
    .ARM.__AT_0x68000000                     0x68000000   Section    983040  malloc.o(.ARM.__AT_0x68000000)
    .ARM.__AT_0x680F0000                     0x680f0000   Section    61440  malloc.o(.ARM.__AT_0x680F0000)

    Global Symbols

    Symbol Name                              Value     Ov Type        Size  Object(Section)

    BuildAttributes$$THM_ISAv4$P$D$K$B$S$PE$A:L22UL41UL21$X:L11$S22US41US21$IEEE1$IW$USESV6$~STKCKD$USESV7$~SHL$OTIME$ROPI$IEEEX$EBA8$UX$STANDARDLIB$REQ8$PRES8$EABIv2 0x00000000   Number         0  anon$$obj.o ABSOLUTE
    __ARM_use_no_argv                        0x00000000   Number         0  test.o ABSOLUTE
    __ARM_exceptions_init                     - Undefined Weak Reference
    __alloca_initialize                       - Undefined Weak Reference
    __arm_preinit_                            - Undefined Weak Reference
    __cpp_initialize__aeabi_                  - Undefined Weak Reference
    __cxa_finalize                            - Undefined Weak Reference
    __rt_locale                               - Undefined Weak Reference
    __sigvec_lookup                           - Undefined Weak Reference
    _atexit_init                              - Undefined Weak Reference
    _call_atexit_fns                          - Undefined Weak Reference
    _clock_init                               - Undefined Weak Reference
    _fp_trap_init                             - Undefined Weak Reference
    _fp_trap_shutdown                         - Undefined Weak Reference
    _get_lc_collate                           - Undefined Weak Reference
    _get_lc_ctype                             - Undefined Weak Reference
    _get_lc_monetary                          - Undefined Weak Reference
    _get_lc_numeric                           - Undefined Weak Reference
    _get_lc_time                              - Undefined Weak Reference
    _getenv_init                              - Undefined Weak Reference
    _handle_redirection                       - Undefined Weak Reference
    _init_alloc                               - Undefined Weak Reference
    _init_user_alloc                          - Undefined Weak Reference
    _initio                                   - Undefined Weak Reference
    _mutex_acquire                            - Undefined Weak Reference
    _mutex_release                            - Undefined Weak Reference
    _printf_mbtowc                            - Undefined Weak Reference
    _printf_post_padding                      - Undefined Weak Reference
    _printf_pre_padding                       - Undefined Weak Reference
    _printf_truncate_signed                   - Undefined Weak Reference
    _printf_truncate_unsigned                 - Undefined Weak Reference
    _rand_init                                - Undefined Weak Reference
    _signal_finish                            - Undefined Weak Reference
    _signal_init                              - Undefined Weak Reference
    _terminate_alloc                          - Undefined Weak Reference
    _terminate_user_alloc                     - Undefined Weak Reference
    _terminateio                              - Undefined Weak Reference
    __Vectors_Size                           0x00000130   Number         0  startup_stm32f10x_hd.o ABSOLUTE
    __Vectors                                0x08000000   Data           4  startup_stm32f10x_hd.o(RESET)
    __Vectors_End                            0x08000130   Data           0  startup_stm32f10x_hd.o(RESET)
    __main                                   0x08000131   Thumb Code     8  __main.o(!!!main)
    __scatterload                            0x08000139   Thumb Code     0  __scatter.o(!!!scatter)
    __scatterload_rt2                        0x08000139   Thumb Code    44  __scatter.o(!!!scatter)
    __scatterload_rt2_thumb_only             0x08000139   Thumb Code     0  __scatter.o(!!!scatter)
    __scatterload_null                       0x08000147   Thumb Code     0  __scatter.o(!!!scatter)
    __scatterload_copy                       0x0800016d   Thumb Code    26  __scatter_copy.o(!!handler_copy)
    __scatterload_zeroinit                   0x08000189   Thumb Code    28  __scatter_zi.o(!!handler_zi)
    _printf_d                                0x080001a5   Thumb Code     0  _printf_d.o(.ARM.Collect$$_printf_percent$$00000009)
    _printf_percent                          0x080001a5   Thumb Code     0  _printf_percent.o(.ARM.Collect$$_printf_percent$$00000000)
    _printf_x                                0x080001ab   Thumb Code     0  _printf_x.o(.ARM.Collect$$_printf_percent$$0000000C)
    _printf_s                                0x080001b1   Thumb Code     0  _printf_s.o(.ARM.Collect$$_printf_percent$$00000014)
    _printf_percent_end                      0x080001b7   Thumb Code     0  _printf_percent_end.o(.ARM.Collect$$_printf_percent$$00000017)
    __rt_lib_init                            0x080001bb   Thumb Code     0  libinit.o(.ARM.Collect$$libinit$$00000000)
    __rt_lib_init_alloca_1                   0x080001bd   Thumb Code     0  libinit2.o(.ARM.Collect$$libinit$$0000002E)
    __rt_lib_init_argv_1                     0x080001bd   Thumb Code     0  libinit2.o(.ARM.Collect$$libinit$$0000002C)
    __rt_lib_init_atexit_1                   0x080001bd   Thumb Code     0  libinit2.o(.ARM.Collect$$libinit$$0000001B)
    __rt_lib_init_clock_1                    0x080001bd   Thumb Code     0  libinit2.o(.ARM.Collect$$libinit$$00000021)
    __rt_lib_init_cpp_1                      0x080001bd   Thumb Code     0  libinit2.o(.ARM.Collect$$libinit$$00000032)
    __rt_lib_init_exceptions_1               0x080001bd   Thumb Code     0  libinit2.o(.ARM.Collect$$libinit$$00000030)
    __rt_lib_init_fp_1                       0x080001bd   Thumb Code     0  libinit2.o(.ARM.Collect$$libinit$$00000002)
    __rt_lib_init_fp_trap_1                  0x080001bd   Thumb Code     0  libinit2.o(.ARM.Collect$$libinit$$0000001F)
    __rt_lib_init_getenv_1                   0x080001bd   Thumb Code     0  libinit2.o(.ARM.Collect$$libinit$$00000023)
    __rt_lib_init_heap_1                     0x080001bd   Thumb Code     0  libinit2.o(.ARM.Collect$$libinit$$0000000A)
    __rt_lib_init_lc_collate_1               0x080001bd   Thumb Code     0  libinit2.o(.ARM.Collect$$libinit$$00000011)
    __rt_lib_init_lc_ctype_1                 0x080001bd   Thumb Code     0  libinit2.o(.ARM.Collect$$libinit$$00000013)
    __rt_lib_init_lc_monetary_1              0x080001bd   Thumb Code     0  libinit2.o(.ARM.Collect$$libinit$$00000015)
    __rt_lib_init_lc_numeric_1               0x080001bd   Thumb Code     0  libinit2.o(.ARM.Collect$$libinit$$00000017)
    __rt_lib_init_lc_time_1                  0x080001bd   Thumb Code     0  libinit2.o(.ARM.Collect$$libinit$$00000019)
    __rt_lib_init_preinit_1                  0x080001bd   Thumb Code     0  libinit2.o(.ARM.Collect$$libinit$$00000004)
    __rt_lib_init_rand_1                     0x080001bd   Thumb Code     0  libinit2.o(.ARM.Collect$$libinit$$0000000E)
    __rt_lib_init_return                     0x080001bd   Thumb Code     0  libinit2.o(.ARM.Collect$$libinit$$00000033)
    __rt_lib_init_signal_1                   0x080001bd   Thumb Code     0  libinit2.o(.ARM.Collect$$libinit$$0000001D)
    __rt_lib_init_stdio_1                    0x080001bd   Thumb Code     0  libinit2.o(.ARM.Collect$$libinit$$00000025)
    __rt_lib_init_user_alloc_1               0x080001bd   Thumb Code     0  libinit2.o(.ARM.Collect$$libinit$$0000000C)
    __rt_lib_shutdown                        0x080001bf   Thumb Code     0  libshutdown.o(.ARM.Collect$$libshutdown$$00000000)
    __rt_lib_shutdown_fp_trap_1              0x080001c1   Thumb Code     0  libshutdown2.o(.ARM.Collect$$libshutdown$$00000006)
    __rt_lib_shutdown_heap_1                 0x080001c1   Thumb Code     0  libshutdown2.o(.ARM.Collect$$libshutdown$$0000000E)
    __rt_lib_shutdown_return                 0x080001c1   Thumb Code     0  libshutdown2.o(.ARM.Collect$$libshutdown$$0000000F)
    __rt_lib_shutdown_signal_1               0x080001c1   Thumb Code     0  libshutdown2.o(.ARM.Collect$$libshutdown$$00000009)
    __rt_lib_shutdown_stdio_1                0x080001c1   Thumb Code     0  libshutdown2.o(.ARM.Collect$$libshutdown$$00000003)
    __rt_lib_shutdown_user_alloc_1           0x080001c1   Thumb Code     0  libshutdown2.o(.ARM.Collect$$libshutdown$$0000000B)
    __rt_entry                               0x080001c3   Thumb Code     0  __rtentry.o(.ARM.Collect$$rtentry$$00000000)
    __rt_entry_presh_1                       0x080001c3   Thumb Code     0  __rtentry2.o(.ARM.Collect$$rtentry$$00000002)
    __rt_entry_sh                            0x080001c3   Thumb Code     0  __rtentry4.o(.ARM.Collect$$rtentry$$00000004)
    __rt_entry_li                            0x080001c9   Thumb Code     0  __rtentry2.o(.ARM.Collect$$rtentry$$0000000A)
    __rt_entry_postsh_1                      0x080001c9   Thumb Code     0  __rtentry2.o(.ARM.Collect$$rtentry$$00000009)
    __rt_entry_main                          0x080001cd   Thumb Code     0  __rtentry2.o(.ARM.Collect$$rtentry$$0000000D)
    __rt_entry_postli_1                      0x080001cd   Thumb Code     0  __rtentry2.o(.ARM.Collect$$rtentry$$0000000C)
    __rt_exit                                0x080001d5   Thumb Code     0  rtexit.o(.ARM.Collect$$rtexit$$00000000)
    __rt_exit_ls                             0x080001d7   Thumb Code     0  rtexit2.o(.ARM.Collect$$rtexit$$00000003)
    __rt_exit_prels_1                        0x080001d7   Thumb Code     0  rtexit2.o(.ARM.Collect$$rtexit$$00000002)
    __rt_exit_exit                           0x080001db   Thumb Code     0  rtexit2.o(.ARM.Collect$$rtexit$$00000004)
    Reset_Handler                            0x080001e1   Thumb Code     4  startup_stm32f10x_hd.o(.text)
    NMI_Handler                              0x080001e5   Thumb Code     2  startup_stm32f10x_hd.o(.text)
    HardFault_Handler                        0x080001e7   Thumb Code     2  startup_stm32f10x_hd.o(.text)
    MemManage_Handler                        0x080001e9   Thumb Code     2  startup_stm32f10x_hd.o(.text)
    BusFault_Handler                         0x080001eb   Thumb Code     2  startup_stm32f10x_hd.o(.text)
    UsageFault_Handler                       0x080001ed   Thumb Code     2  startup_stm32f10x_hd.o(.text)
    SVC_Handler                              0x080001ef   Thumb Code     2  startup_stm32f10x_hd.o(.text)
    DebugMon_Handler                         0x080001f1   Thumb Code     2  startup_stm32f10x_hd.o(.text)
    PendSV_Handler                           0x080001f3   Thumb Code     2  startup_stm32f10x_hd.o(.text)
    SysTick_Handler                          0x080001f5   Thumb Code     2  startup_stm32f10x_hd.o(.text)
    ADC1_2_IRQHandler                        0x080001f7   Thumb Code     0  startup_stm32f10x_hd.o(.text)
    ADC3_IRQHandler                          0x080001f7   Thumb Code     0  startup_stm32f10x_hd.o(.text)
    CAN1_RX1_IRQHandler                      0x080001f7   Thumb Code     0  startup_stm32f10x_hd.o(.text)
    CAN1_SCE_IRQHandler                      0x080001f7   Thumb Code     0  startup_stm32f10x_hd.o(.text)
    DMA1_Channel1_IRQHandler                 0x080001f7   Thumb Code     0  startup_stm32f10x_hd.o(.text)
    DMA1_Channel2_IRQHandler                 0x080001f7   Thumb Code     0  startup_stm32f10x_hd.o(.text)
    DMA1_Channel3_IRQHandler                 0x080001f7   Thumb Code     0  startup_stm32f10x_hd.o(.text)
    DMA1_Channel4_IRQHandler                 0x080001f7   Thumb Code     0  startup_stm32f10x_hd.o(.text)
    DMA1_Channel5_IRQHandler                 0x080001f7   Thumb Code     0  startup_stm32f10x_hd.o(.text)
    DMA1_Channel6_IRQHandler                 0x080001f7   Thumb Code     0  startup_stm32f10x_hd.o(.text)
    DMA1_Channel7_IRQHandler                 0x080001f7   Thumb Code     0  startup_stm32f10x_hd.o(.text)
    DMA2_Channel1_IRQHandler                 0x080001f7   Thumb Code     0  startup_stm32f10x_hd.o(.text)
    DMA2_Channel2_IRQHandler                 0x080001f7   Thumb Code     0  startup_stm32f10x_hd.o(.text)
    DMA2_Channel3_IRQHandler                 0x080001f7   Thumb Code     0  startup_stm32f10x_hd.o(.text)
    DMA2_Channel4_5_IRQHandler               0x080001f7   Thumb Code     0  startup_stm32f10x_hd.o(.text)
    EXTI0_IRQHandler                         0x080001f7   Thumb Code     0  startup_stm32f10x_hd.o(.text)
    EXTI15_10_IRQHandler                     0x080001f7   Thumb Code     0  startup_stm32f10x_hd.o(.text)
    EXTI1_IRQHandler                         0x080001f7   Thumb Code     0  startup_stm32f10x_hd.o(.text)
    EXTI2_IRQHandler                         0x080001f7   Thumb Code     0  startup_stm32f10x_hd.o(.text)
    EXTI3_IRQHandler                         0x080001f7   Thumb Code     0  startup_stm32f10x_hd.o(.text)
    EXTI4_IRQHandler                         0x080001f7   Thumb Code     0  startup_stm32f10x_hd.o(.text)
    EXTI9_5_IRQHandler                       0x080001f7   Thumb Code     0  startup_stm32f10x_hd.o(.text)
    FLASH_IRQHandler                         0x080001f7   Thumb Code     0  startup_stm32f10x_hd.o(.text)
    FSMC_IRQHandler                          0x080001f7   Thumb Code     0  startup_stm32f10x_hd.o(.text)
    I2C1_ER_IRQHandler                       0x080001f7   Thumb Code     0  startup_stm32f10x_hd.o(.text)
    I2C1_EV_IRQHandler                       0x080001f7   Thumb Code     0  startup_stm32f10x_hd.o(.text)
    I2C2_ER_IRQHandler                       0x080001f7   Thumb Code     0  startup_stm32f10x_hd.o(.text)
    I2C2_EV_IRQHandler                       0x080001f7   Thumb Code     0  startup_stm32f10x_hd.o(.text)
    PVD_IRQHandler                           0x080001f7   Thumb Code     0  startup_stm32f10x_hd.o(.text)
    RCC_IRQHandler                           0x080001f7   Thumb Code     0  startup_stm32f10x_hd.o(.text)
    RTCAlarm_IRQHandler                      0x080001f7   Thumb Code     0  startup_stm32f10x_hd.o(.text)
    RTC_IRQHandler                           0x080001f7   Thumb Code     0  startup_stm32f10x_hd.o(.text)
    SPI1_IRQHandler                          0x080001f7   Thumb Code     0  startup_stm32f10x_hd.o(.text)
    SPI2_IRQHandler                          0x080001f7   Thumb Code     0  startup_stm32f10x_hd.o(.text)
    SPI3_IRQHandler                          0x080001f7   Thumb Code     0  startup_stm32f10x_hd.o(.text)
    TAMPER_IRQHandler                        0x080001f7   Thumb Code     0  startup_stm32f10x_hd.o(.text)
    TIM1_BRK_IRQHandler                      0x080001f7   Thumb Code     0  startup_stm32f10x_hd.o(.text)
    TIM1_CC_IRQHandler                       0x080001f7   Thumb Code     0  startup_stm32f10x_hd.o(.text)
    TIM1_TRG_COM_IRQHandler                  0x080001f7   Thumb Code     0  startup_stm32f10x_hd.o(.text)
    TIM1_UP_IRQHandler                       0x080001f7   Thumb Code     0  startup_stm32f10x_hd.o(.text)
    TIM2_IRQHandler                          0x080001f7   Thumb Code     0  startup_stm32f10x_hd.o(.text)
    TIM3_IRQHandler                          0x080001f7   Thumb Code     0  startup_stm32f10x_hd.o(.text)
    TIM4_IRQHandler                          0x080001f7   Thumb Code     0  startup_stm32f10x_hd.o(.text)
    TIM5_IRQHandler                          0x080001f7   Thumb Code     0  startup_stm32f10x_hd.o(.text)
    TIM6_IRQHandler                          0x080001f7   Thumb Code     0  startup_stm32f10x_hd.o(.text)
    TIM7_IRQHandler                          0x080001f7   Thumb Code     0  startup_stm32f10x_hd.o(.text)
    TIM8_BRK_IRQHandler                      0x080001f7   Thumb Code     0  startup_stm32f10x_hd.o(.text)
    TIM8_CC_IRQHandler                       0x080001f7   Thumb Code     0  startup_stm32f10x_hd.o(.text)
    TIM8_TRG_COM_IRQHandler                  0x080001f7   Thumb Code     0  startup_stm32f10x_hd.o(.text)
    TIM8_UP_IRQHandler                       0x080001f7   Thumb Code     0  startup_stm32f10x_hd.o(.text)
    UART4_IRQHandler                         0x080001f7   Thumb Code     0  startup_stm32f10x_hd.o(.text)
    UART5_IRQHandler                         0x080001f7   Thumb Code     0  startup_stm32f10x_hd.o(.text)
    USART2_IRQHandler                        0x080001f7   Thumb Code     0  startup_stm32f10x_hd.o(.text)
    USART3_IRQHandler                        0x080001f7   Thumb Code     0  startup_stm32f10x_hd.o(.text)
    USBWakeUp_IRQHandler                     0x080001f7   Thumb Code     0  startup_stm32f10x_hd.o(.text)
    USB_HP_CAN1_TX_IRQHandler                0x080001f7   Thumb Code     0  startup_stm32f10x_hd.o(.text)
    USB_LP_CAN1_RX0_IRQHandler               0x080001f7   Thumb Code     0  startup_stm32f10x_hd.o(.text)
    WWDG_IRQHandler                          0x080001f7   Thumb Code     0  startup_stm32f10x_hd.o(.text)
    __user_initial_stackheap                 0x080001f9   Thumb Code     0  startup_stm32f10x_hd.o(.text)
    alientek_ncr_stop                        0x08000215   Thumb Code    60  recognition.o(.text)
    alientek_ncr_init                        0x08000251   Thumb Code   148  recognition.o(.text)
    QuickSort                                0x080002e5   Thumb Code   188  recognition.o(.text)
    matrix_multiplication                    0x080003a1   Thumb Code   108  recognition.o(.text)
    CalcDirect                               0x0800040d   Thumb Code   266  recognition.o(.text)
    GetPot                                   0x08000517   Thumb Code    58  recognition.o(.text)
    OverallElasticMesh                       0x08000551   Thumb Code   526  recognition.o(.text)
    FeaExtractByGradient                     0x0800075f   Thumb Code  1888  recognition.o(.text)
    DDA_IMAGE                                0x08000ebf   Thumb Code  1352  recognition.o(.text)
    LinearNorm_data                          0x08001407   Thumb Code   276  recognition.o(.text)
    DDA_atk_ncr_point                        0x0800151b   Thumb Code   568  recognition.o(.text)
    SmoothFilter                             0x08001753   Thumb Code   206  recognition.o(.text)
    recog                                    0x08001821   Thumb Code   712  recognition.o(.text)
    alientek_ncr                             0x08001ae9   Thumb Code   250  recognition.o(.text)
    ExtractPoint                             0x08001be3   Thumb Code   498  recognition.o(.text)
    __use_no_semihosting                     0x08001dd5   Thumb Code     2  use_no_semi_2.o(.text)
    __2printf                                0x08001dd9   Thumb Code    20  noretval__2printf.o(.text)
    __printf                                 0x08001df1   Thumb Code   104  __printf.o(.text)
    _printf_str                              0x08001e59   Thumb Code    82  _printf_str.o(.text)
    _printf_int_dec                          0x08001ead   Thumb Code   104  _printf_dec.o(.text)
    _printf_int_hex                          0x08001f25   Thumb Code    84  _printf_hex_int.o(.text)
    _printf_longlong_hex                     0x08001f25   Thumb Code     0  _printf_hex_int.o(.text)
    __aeabi_memcpy                           0x08001f7d   Thumb Code     0  rt_memcpy_v6.o(.text)
    __rt_memcpy                              0x08001f7d   Thumb Code   138  rt_memcpy_v6.o(.text)
    _memcpy_lastbytes                        0x08001fe3   Thumb Code     0  rt_memcpy_v6.o(.text)
    strcmp                                   0x08002009   Thumb Code   128  strcmpv7m.o(.text)
    __use_two_region_memory                  0x08002089   Thumb Code     2  heapauxi.o(.text)
    __rt_heap_escrow$2region                 0x0800208b   Thumb Code     2  heapauxi.o(.text)
    __rt_heap_expand$2region                 0x0800208d   Thumb Code     2  heapauxi.o(.text)
    __I$use$semihosting                      0x0800208f   Thumb Code     0  use_no_semi.o(.text)
    __use_no_semihosting_swi                 0x0800208f   Thumb Code     2  use_no_semi.o(.text)
    __read_errno                             0x08002091   Thumb Code    10  _rserrno.o(.text)
    __set_errno                              0x0800209b   Thumb Code    12  _rserrno.o(.text)
    _printf_int_common                       0x080020a7   Thumb Code   178  _printf_intcommon.o(.text)
    _printf_cs_common                        0x08002159   Thumb Code    20  _printf_char.o(.text)
    _printf_char                             0x0800216d   Thumb Code    16  _printf_char.o(.text)
    _printf_string                           0x0800217d   Thumb Code     8  _printf_char.o(.text)
    _printf_char_file                        0x08002185   Thumb Code    32  _printf_char_file.o(.text)
    __aeabi_memcpy4                          0x080021a9   Thumb Code     0  rt_memcpy_w.o(.text)
    __aeabi_memcpy8                          0x080021a9   Thumb Code     0  rt_memcpy_w.o(.text)
    __rt_memcpy_w                            0x080021a9   Thumb Code   100  rt_memcpy_w.o(.text)
    _memcpy_lastbytes_aligned                0x080021f1   Thumb Code     0  rt_memcpy_w.o(.text)
    __aeabi_errno_addr                       0x0800220d   Thumb Code     8  rt_errno_addr_intlibspace.o(.text)
    __errno$intlibspace                      0x0800220d   Thumb Code     0  rt_errno_addr_intlibspace.o(.text)
    __rt_errno_addr$intlibspace              0x0800220d   Thumb Code     0  rt_errno_addr_intlibspace.o(.text)
    _printf_char_common                      0x0800221f   Thumb Code    32  _printf_char_common.o(.text)
    ferror                                   0x08002245   Thumb Code     8  ferror.o(.text)
    __user_libspace                          0x0800224d   Thumb Code     8  libspace.o(.text)
    __user_perproc_libspace                  0x0800224d   Thumb Code     0  libspace.o(.text)
    __user_perthread_libspace                0x0800224d   Thumb Code     0  libspace.o(.text)
    __user_setup_stackheap                   0x08002255   Thumb Code    74  sys_stackheap_outer.o(.text)
    exit                                     0x0800229f   Thumb Code    12  exit.o(.text)
    AT24CXX_Init                             0x080022ab   Thumb Code     8  24cxx.o(i.AT24CXX_Init)
    AT24CXX_Read                             0x080022b3   Thumb Code    34  24cxx.o(i.AT24CXX_Read)
    AT24CXX_ReadOneByte                      0x080022d5   Thumb Code    88  24cxx.o(i.AT24CXX_ReadOneByte)
    AT24CXX_Write                            0x0800232d   Thumb Code    36  24cxx.o(i.AT24CXX_Write)
    AT24CXX_WriteOneByte                     0x08002351   Thumb Code    80  24cxx.o(i.AT24CXX_WriteOneByte)
    CT_Delay                                 0x080023a1   Thumb Code    10  ctiic.o(i.CT_Delay)
    CT_IIC_Ack                               0x080023ad   Thumb Code    66  ctiic.o(i.CT_IIC_Ack)
    CT_IIC_Init                              0x08002401   Thumb Code   100  ctiic.o(i.CT_IIC_Init)
    CT_IIC_NAck                              0x08002471   Thumb Code    66  ctiic.o(i.CT_IIC_NAck)
    CT_IIC_Read_Byte                         0x080024c5   Thumb Code    94  ctiic.o(i.CT_IIC_Read_Byte)
    CT_IIC_Send_Byte                         0x08002535   Thumb Code    82  ctiic.o(i.CT_IIC_Send_Byte)
    CT_IIC_Start                             0x08002599   Thumb Code    62  ctiic.o(i.CT_IIC_Start)
    CT_IIC_Stop                              0x080025e5   Thumb Code    56  ctiic.o(i.CT_IIC_Stop)
    CT_IIC_Wait_Ack                          0x0800262d   Thumb Code    82  ctiic.o(i.CT_IIC_Wait_Ack)
    CmdError                                 0x08002691   Thumb Code    48  sdio_sdcard.o(i.CmdError)
    CmdResp1Error                            0x080026c5   Thumb Code    82  sdio_sdcard.o(i.CmdResp1Error)
    CmdResp2Error                            0x0800271d   Thumb Code    88  sdio_sdcard.o(i.CmdResp2Error)
    CmdResp3Error                            0x08002779   Thumb Code    52  sdio_sdcard.o(i.CmdResp3Error)
    CmdResp6Error                            0x080027b1   Thumb Code   142  sdio_sdcard.o(i.CmdResp6Error)
    CmdResp7Error                            0x08002845   Thumb Code    80  sdio_sdcard.o(i.CmdResp7Error)
    FT5206_Init                              0x08002899   Thumb Code   190  ft5206.o(i.FT5206_Init)
    FT5206_RD_Reg                            0x08002975   Thumb Code    88  ft5206.o(i.FT5206_RD_Reg)
    FT5206_Scan                              0x080029cd   Thumb Code   400  ft5206.o(i.FT5206_Scan)
    FT5206_WR_Reg                            0x08002b69   Thumb Code    82  ft5206.o(i.FT5206_WR_Reg)
    FindSCR                                  0x08002bbd   Thumb Code   326  sdio_sdcard.o(i.FindSCR)
    GT9147_Init                              0x08002d09   Thumb Code   248  gt9147.o(i.GT9147_Init)
    GT9147_RD_Reg                            0x08002e39   Thumb Code    98  gt9147.o(i.GT9147_RD_Reg)
    GT9147_Scan                              0x08002e9d   Thumb Code   494  gt9147.o(i.GT9147_Scan)
    GT9147_Send_Cfg                          0x0800309d   Thumb Code    86  gt9147.o(i.GT9147_Send_Cfg)
    GT9147_WR_Reg                            0x080030f9   Thumb Code    92  gt9147.o(i.GT9147_WR_Reg)
    Get_HzMat                                0x08003155   Thumb Code   220  text.o(i.Get_HzMat)
    IIC_Ack                                  0x08003235   Thumb Code    66  myiic.o(i.IIC_Ack)
    IIC_Init                                 0x08003285   Thumb Code    52  myiic.o(i.IIC_Init)
    IIC_NAck                                 0x080032c1   Thumb Code    66  myiic.o(i.IIC_NAck)
    IIC_Read_Byte                            0x08003311   Thumb Code    98  myiic.o(i.IIC_Read_Byte)
    IIC_Send_Byte                            0x08003381   Thumb Code    90  myiic.o(i.IIC_Send_Byte)
    IIC_Start                                0x080033e9   Thumb Code    64  myiic.o(i.IIC_Start)
    IIC_Stop                                 0x08003435   Thumb Code    62  myiic.o(i.IIC_Stop)
    IIC_Wait_Ack                             0x08003481   Thumb Code    86  myiic.o(i.IIC_Wait_Ack)
    INTX_DISABLE                             0x080034e5   Thumb Code     4  sys.o(i.INTX_DISABLE)
    INTX_ENABLE                              0x080034e9   Thumb Code     4  sys.o(i.INTX_ENABLE)
    IsCardProgramming                        0x080034ed   Thumb Code   134  sdio_sdcard.o(i.IsCardProgramming)
    KEY_Init                                 0x0800357d   Thumb Code    86  key.o(i.KEY_Init)
    KEY_Scan                                 0x080035e9   Thumb Code   150  key.o(i.KEY_Scan)
    LCD_Clear                                0x0800368d   Thumb Code   100  ili93xx.o(i.LCD_Clear)
    LCD_Display_Dir                          0x080036f9   Thumb Code   444  ili93xx.o(i.LCD_Display_Dir)
    LCD_DrawLine                             0x080038b9   Thumb Code   176  ili93xx.o(i.LCD_DrawLine)
    LCD_DrawPoint                            0x08003969   Thumb Code    28  ili93xx.o(i.LCD_DrawPoint)
    LCD_DrawRectangle                        0x0800398d   Thumb Code    60  ili93xx.o(i.LCD_DrawRectangle)
    LCD_Draw_Circle                          0x080039c9   Thumb Code   152  ili93xx.o(i.LCD_Draw_Circle)
    LCD_Fast_DrawPoint                       0x08003a61   Thumb Code   370  ili93xx.o(i.LCD_Fast_DrawPoint)
    LCD_Fill                                 0x08003bdd   Thumb Code   178  ili93xx.o(i.LCD_Fill)
    LCD_Init                                 0x08003c99   Thumb Code 14280  ili93xx.o(i.LCD_Init)
    LCD_Pow                                  0x08007469   Thumb Code    22  ili93xx.o(i.LCD_Pow)
    LCD_RD_DATA                              0x08007481   Thumb Code    14  ili93xx.o(i.LCD_RD_DATA)
    LCD_ReadReg                              0x08007495   Thumb Code    22  ili93xx.o(i.LCD_ReadReg)
    LCD_SSD_BackLightSet                     0x080074ad   Thumb Code    80  ili93xx.o(i.LCD_SSD_BackLightSet)
    LCD_Scan_Dir                             0x08007501   Thumb Code   744  ili93xx.o(i.LCD_Scan_Dir)
    LCD_SetCursor                            0x080077ed   Thumb Code   418  ili93xx.o(i.LCD_SetCursor)
    LCD_ShowChar                             0x08007995   Thumb Code   272  ili93xx.o(i.LCD_ShowChar)
    LCD_ShowNum                              0x08007abd   Thumb Code   148  ili93xx.o(i.LCD_ShowNum)
    LCD_ShowString                           0x08007b51   Thumb Code   102  ili93xx.o(i.LCD_ShowString)
    LCD_WR_DATA                              0x08007bb9   Thumb Code     6  ili93xx.o(i.LCD_WR_DATA)
    LCD_WR_REG                               0x08007bc5   Thumb Code     6  ili93xx.o(i.LCD_WR_REG)
    LCD_WriteRAM_Prepare                     0x08007bd1   Thumb Code    10  ili93xx.o(i.LCD_WriteRAM_Prepare)
    LCD_WriteReg                             0x08007be5   Thumb Code    10  ili93xx.o(i.LCD_WriteReg)
    LED_Init                                 0x08007bf5   Thumb Code   100  led.o(i.LED_Init)
    MYRCC_DeInit                             0x08007c65   Thumb Code    90  sys.o(i.MYRCC_DeInit)
    MY_NVIC_Init                             0x08007ccd   Thumb Code   116  sys.o(i.MY_NVIC_Init)
    MY_NVIC_PriorityGroupConfig              0x08007d45   Thumb Code    32  sys.o(i.MY_NVIC_PriorityGroupConfig)
    MY_NVIC_SetVectorTable                   0x08007d6d   Thumb Code    12  sys.o(i.MY_NVIC_SetVectorTable)
    OTT2001A_Init                            0x08007d81   Thumb Code   130  ott2001a.o(i.OTT2001A_Init)
    OTT2001A_RD_Reg                          0x08007e21   Thumb Code    98  ott2001a.o(i.OTT2001A_RD_Reg)
    OTT2001A_Scan                            0x08007e85   Thumb Code   446  ott2001a.o(i.OTT2001A_Scan)
    OTT2001A_SensorControl                   0x08008065   Thumb Code    28  ott2001a.o(i.OTT2001A_SensorControl)
    OTT2001A_WR_Reg                          0x08008081   Thumb Code    92  ott2001a.o(i.OTT2001A_WR_Reg)
    SDEnWideBus                              0x080080dd   Thumb Code   118  sdio_sdcard.o(i.SDEnWideBus)
    SDIO_Clock_Set                           0x0800815d   Thumb Code    16  sdio_sdcard.o(i.SDIO_Clock_Set)
    SDIO_IRQHandler                          0x08008171   Thumb Code     8  sdio_sdcard.o(i.SDIO_IRQHandler)
    SDIO_Send_Cmd                            0x08008179   Thumb Code    36  sdio_sdcard.o(i.SDIO_Send_Cmd)
    SDIO_Send_Data_Cfg                       0x080081a1   Thumb Code    48  sdio_sdcard.o(i.SDIO_Send_Data_Cfg)
    SD_DMA_Config                            0x080081d5   Thumb Code   142  sdio_sdcard.o(i.SD_DMA_Config)
    SD_EnableWideBusOperation                0x0800826d   Thumb Code    94  sdio_sdcard.o(i.SD_EnableWideBusOperation)
    SD_GetCardInfo                           0x080082d5   Thumb Code   772  sdio_sdcard.o(i.SD_GetCardInfo)
    SD_Init                                  0x080085e9   Thumb Code   234  sdio_sdcard.o(i.SD_Init)
    SD_InitializeCards                       0x080086f5   Thumb Code   240  sdio_sdcard.o(i.SD_InitializeCards)
    SD_PowerON                               0x080087f9   Thumb Code   358  sdio_sdcard.o(i.SD_PowerON)
    SD_ProcessIRQSrc                         0x08008971   Thumb Code   310  sdio_sdcard.o(i.SD_ProcessIRQSrc)
    SD_ReadBlock                             0x08008ab9   Thumb Code   512  sdio_sdcard.o(i.SD_ReadBlock)
    SD_ReadDisk                              0x08008cd9   Thumb Code   148  sdio_sdcard.o(i.SD_ReadDisk)
    SD_ReadMultiBlocks                       0x08008d71   Thumb Code   628  sdio_sdcard.o(i.SD_ReadMultiBlocks)
    SD_SelectDeselect                        0x08009009   Thumb Code    22  sdio_sdcard.o(i.SD_SelectDeselect)
    SD_SetDeviceMode                         0x08009021   Thumb Code    20  sdio_sdcard.o(i.SD_SetDeviceMode)
    SD_WriteBlock                            0x08009039   Thumb Code   760  sdio_sdcard.o(i.SD_WriteBlock)
    SD_WriteDisk                             0x08009351   Thumb Code   148  sdio_sdcard.o(i.SD_WriteDisk)
    SD_WriteMultiBlocks                      0x080093e9   Thumb Code   816  sdio_sdcard.o(i.SD_WriteMultiBlocks)
    SPI2_Init                                0x08009739   Thumb Code   162  spi.o(i.SPI2_Init)
    SPI2_ReadWriteByte                       0x080097ed   Thumb Code    82  spi.o(i.SPI2_ReadWriteByte)
    SPI2_SetSpeed                            0x08009845   Thumb Code    40  spi.o(i.SPI2_SetSpeed)
    Show_Font                                0x08009871   Thumb Code   190  text.o(i.Show_Font)
    Show_Str                                 0x08009939   Thumb Code   194  text.o(i.Show_Str)
    Stm32_Clock_Init                         0x080099fd   Thumb Code   134  sys.o(i.Stm32_Clock_Init)
    TP_Adj_Info_Show                         0x08009a8d   Thumb Code   374  touch.o(i.TP_Adj_Info_Show)
    TP_Adjust                                0x08009c35   Thumb Code  2058  touch.o(i.TP_Adjust)
    TP_Drow_Touch_Point                      0x0800a491   Thumb Code   108  touch.o(i.TP_Drow_Touch_Point)
    TP_Get_Adjdata                           0x0800a501   Thumb Code    68  touch.o(i.TP_Get_Adjdata)
    TP_Init                                  0x0800a551   Thumb Code   292  touch.o(i.TP_Init)
    TP_Read_AD                               0x0800a695   Thumb Code   132  touch.o(i.TP_Read_AD)
    TP_Read_XOY                              0x0800a729   Thumb Code   120  touch.o(i.TP_Read_XOY)
    TP_Read_XY                               0x0800a7a1   Thumb Code    38  touch.o(i.TP_Read_XY)
    TP_Read_XY2                              0x0800a7d1   Thumb Code   192  touch.o(i.TP_Read_XY2)
    TP_Save_Adjdata                          0x0800a891   Thumb Code    22  touch.o(i.TP_Save_Adjdata)
    TP_Scan                                  0x0800a8ad   Thumb Code   262  touch.o(i.TP_Scan)
    TP_Write_Byte                            0x0800a9bd   Thumb Code    64  touch.o(i.TP_Write_Byte)
    USART1_IRQHandler                        0x0800aa09   Thumb Code   118  usart.o(i.USART1_IRQHandler)
    W25QXX_Erase_Sector                      0x0800aa8d   Thumb Code    70  w25qxx.o(i.W25QXX_Erase_Sector)
    W25QXX_Init                              0x0800aae5   Thumb Code    62  w25qxx.o(i.W25QXX_Init)
    W25QXX_Read                              0x0800ab35   Thumb Code    74  w25qxx.o(i.W25QXX_Read)
    W25QXX_ReadID                            0x0800ab85   Thumb Code    64  w25qxx.o(i.W25QXX_ReadID)
    W25QXX_ReadSR                            0x0800abcd   Thumb Code    36  w25qxx.o(i.W25QXX_ReadSR)
    W25QXX_Wait_Busy                         0x0800abf9   Thumb Code    18  w25qxx.o(i.W25QXX_Wait_Busy)
    W25QXX_Write                             0x0800ac0d   Thumb Code   180  w25qxx.o(i.W25QXX_Write)
    W25QXX_Write_Enable                      0x0800acc5   Thumb Code    24  w25qxx.o(i.W25QXX_Write_Enable)
    W25QXX_Write_NoCheck                     0x0800ace5   Thumb Code    70  w25qxx.o(i.W25QXX_Write_NoCheck)
    W25QXX_Write_Page                        0x0800ad2d   Thumb Code    80  w25qxx.o(i.W25QXX_Write_Page)
    __ARM_fpclassifyf                        0x0800ad81   Thumb Code    38  fpclassifyf.o(i.__ARM_fpclassifyf)
    __mathlib_flt_divzero                    0x0800ada7   Thumb Code    10  funder.o(i.__mathlib_flt_divzero)
    __mathlib_flt_infnan2                    0x0800adb1   Thumb Code     4  funder.o(i.__mathlib_flt_infnan2)
    __mathlib_flt_invalid                    0x0800adb5   Thumb Code     8  funder.o(i.__mathlib_flt_invalid)
    __mathlib_flt_overflow                   0x0800adbd   Thumb Code    10  funder.o(i.__mathlib_flt_overflow)
    __mathlib_flt_underflow                  0x0800adc7   Thumb Code    10  funder.o(i.__mathlib_flt_underflow)
    _sys_exit                                0x0800add1   Thumb Code     6  usart.o(i._sys_exit)
    alientek_ncr_free                        0x0800add7   Thumb Code    14  atk_ncr.o(i.alientek_ncr_free)
    alientek_ncr_malloc                      0x0800ade5   Thumb Code    14  atk_ncr.o(i.alientek_ncr_malloc)
    alientek_ncr_memset                      0x0800adf3   Thumb Code    20  atk_ncr.o(i.alientek_ncr_memset)
    convert_from_bytes_to_power_of_two       0x0800ae99   Thumb Code    18  sdio_sdcard.o(i.convert_from_bytes_to_power_of_two)
    delay_init                               0x0800aead   Thumb Code    56  delay.o(i.delay_init)
    delay_ms                                 0x0800aeed   Thumb Code    56  delay.o(i.delay_ms)
    delay_us                                 0x0800af29   Thumb Code    56  delay.o(i.delay_us)
    disk_initialize                          0x0800af65   Thumb Code    52  diskio.o(i.disk_initialize)
    disk_read                                0x0800af9d   Thumb Code   122  diskio.o(i.disk_read)
    disk_status                              0x0800b017   Thumb Code     6  diskio.o(i.disk_status)
    disk_write                               0x0800b01d   Thumb Code   122  diskio.o(i.disk_write)
    exfuns_init                              0x0800b099   Thumb Code   114  exfuns.o(i.exfuns_init)
    f_mount                                  0x0800b11d   Thumb Code    86  ff.o(i.f_mount)
    font_init                                0x0800b50d   Thumb Code    64  fontupd.o(i.font_init)
    fputc                                    0x0800b551   Thumb Code    24  usart.o(i.fputc)
    gui_draw_hline                           0x0800b5b7   Thumb Code    36  test.o(i.gui_draw_hline)
    gui_fill_circle                          0x0800b5db   Thumb Code   176  test.o(i.gui_fill_circle)
    lcd_draw_bline                           0x0800b68b   Thumb Code   212  test.o(i.lcd_draw_bline)
    main                                     0x0800b761   Thumb Code   954  test.o(i.main)
    my_mem_free                              0x0800bc35   Thumb Code    96  malloc.o(i.my_mem_free)
    my_mem_init                              0x0800bca1   Thumb Code    54  malloc.o(i.my_mem_init)
    my_mem_malloc                            0x0800bce5   Thumb Code   156  malloc.o(i.my_mem_malloc)
    my_mem_perused                           0x0800bd8d   Thumb Code    54  malloc.o(i.my_mem_perused)
    myfree                                   0x0800bdcd   Thumb Code    30  malloc.o(i.myfree)
    mymalloc                                 0x0800bdf1   Thumb Code    34  malloc.o(i.mymalloc)
    mymemset                                 0x0800be19   Thumb Code    20  malloc.o(i.mymemset)
    __mathlib_powf                           0x0800be2d   Thumb Code     0  powf.o(i.powf)
    powf                                     0x0800be2d   Thumb Code  1488  powf.o(i.powf)
    sqrt                                     0x0800c411   Thumb Code    76  sqrt.o(i.sqrt)
    uart_init                                0x0800c4b1   Thumb Code   202  usart.o(i.uart_init)
    __aeabi_dadd                             0x0800c58d   Thumb Code     0  daddsub_clz.o(x$fpl$dadd)
    _dadd                                    0x0800c58d   Thumb Code   332  daddsub_clz.o(x$fpl$dadd)
    __fpl_dcmp_Inf                           0x0800c6dd   Thumb Code    24  dcmpi.o(x$fpl$dcmpinf)
    __aeabi_d2uiz                            0x0800c6f5   Thumb Code     0  dfixu.o(x$fpl$dfixu)
    _dfixu                                   0x0800c6f5   Thumb Code    90  dfixu.o(x$fpl$dfixu)
    __aeabi_i2d                              0x0800c74f   Thumb Code     0  dflt_clz.o(x$fpl$dflt)
    _dflt                                    0x0800c74f   Thumb Code    46  dflt_clz.o(x$fpl$dflt)
    __aeabi_ui2d                             0x0800c77d   Thumb Code     0  dflt_clz.o(x$fpl$dfltu)
    _dfltu                                   0x0800c77d   Thumb Code    38  dflt_clz.o(x$fpl$dfltu)
    __aeabi_cdcmple                          0x0800c7a5   Thumb Code     0  dleqf.o(x$fpl$dleqf)
    _dcmple                                  0x0800c7a5   Thumb Code   120  dleqf.o(x$fpl$dleqf)
    __fpl_dcmple_InfNaN                      0x0800c807   Thumb Code     0  dleqf.o(x$fpl$dleqf)
    __aeabi_dmul                             0x0800c81d   Thumb Code     0  dmul.o(x$fpl$dmul)
    _dmul                                    0x0800c81d   Thumb Code   332  dmul.o(x$fpl$dmul)
    __fpl_dnaninf                            0x0800c971   Thumb Code   156  dnaninf.o(x$fpl$dnaninf)
    __fpl_dretinf                            0x0800ca0d   Thumb Code    12  dretinf.o(x$fpl$dretinf)
    __aeabi_cdrcmple                         0x0800ca19   Thumb Code     0  drleqf.o(x$fpl$drleqf)
    _drcmple                                 0x0800ca19   Thumb Code   108  drleqf.o(x$fpl$drleqf)
    __aeabi_drsub                            0x0800ca85   Thumb Code     0  daddsub_clz.o(x$fpl$drsb)
    _drsb                                    0x0800ca85   Thumb Code    22  daddsub_clz.o(x$fpl$drsb)
    _dsqrt                                   0x0800ca9d   Thumb Code   456  dsqrt_noumaal.o(x$fpl$dsqrt)
    __aeabi_dsub                             0x0800cc69   Thumb Code     0  daddsub_clz.o(x$fpl$dsub)
    _dsub                                    0x0800cc69   Thumb Code   464  daddsub_clz.o(x$fpl$dsub)
    __aeabi_f2d                              0x0800ce3d   Thumb Code     0  f2d.o(x$fpl$f2d)
    _f2d                                     0x0800ce3d   Thumb Code    86  f2d.o(x$fpl$f2d)
    __aeabi_fadd                             0x0800ce95   Thumb Code     0  faddsub_clz.o(x$fpl$fadd)
    _fadd                                    0x0800ce95   Thumb Code   196  faddsub_clz.o(x$fpl$fadd)
    __fpl_fcheck_NaN1                        0x0800cf59   Thumb Code     6  fcheck1.o(x$fpl$fcheck1)
    __fpl_fcmp_Inf                           0x0800cf65   Thumb Code    24  fcmpi.o(x$fpl$fcmpinf)
    __aeabi_fdiv                             0x0800cf7d   Thumb Code     0  fdiv.o(x$fpl$fdiv)
    _fdiv                                    0x0800cf7d   Thumb Code   384  fdiv.o(x$fpl$fdiv)
    __aeabi_f2iz                             0x0800d101   Thumb Code     0  ffix.o(x$fpl$ffix)
    _ffix                                    0x0800d101   Thumb Code    54  ffix.o(x$fpl$ffix)
    _ffix_r                                  0x0800d139   Thumb Code    82  ffix.o(x$fpl$ffixr)
    __aeabi_f2uiz                            0x0800d18d   Thumb Code     0  ffixu.o(x$fpl$ffixu)
    _ffixu                                   0x0800d18d   Thumb Code    62  ffixu.o(x$fpl$ffixu)
    __aeabi_i2f                              0x0800d1cd   Thumb Code     0  fflt_clz.o(x$fpl$fflt)
    _fflt                                    0x0800d1cd   Thumb Code    48  fflt_clz.o(x$fpl$fflt)
    __aeabi_ui2f                             0x0800d1fd   Thumb Code     0  fflt_clz.o(x$fpl$ffltu)
    _ffltu                                   0x0800d1fd   Thumb Code    38  fflt_clz.o(x$fpl$ffltu)
    __aeabi_cfcmple                          0x0800d225   Thumb Code     0  fleqf.o(x$fpl$fleqf)
    _fcmple                                  0x0800d225   Thumb Code   104  fleqf.o(x$fpl$fleqf)
    __fpl_fcmple_InfNaN                      0x0800d277   Thumb Code     0  fleqf.o(x$fpl$fleqf)
    __aeabi_fmul                             0x0800d28d   Thumb Code     0  fmul.o(x$fpl$fmul)
    _fmul                                    0x0800d28d   Thumb Code   258  fmul.o(x$fpl$fmul)
    __fpl_fnaninf                            0x0800d38f   Thumb Code   140  fnaninf.o(x$fpl$fnaninf)
    __fpl_fretinf                            0x0800d41b   Thumb Code    10  fretinf.o(x$fpl$fretinf)
    __aeabi_frsub                            0x0800d425   Thumb Code     0  faddsub_clz.o(x$fpl$frsb)
    _frsb                                    0x0800d425   Thumb Code    20  faddsub_clz.o(x$fpl$frsb)
    __aeabi_fsub                             0x0800d439   Thumb Code     0  faddsub_clz.o(x$fpl$fsub)
    _fsub                                    0x0800d439   Thumb Code   234  faddsub_clz.o(x$fpl$fsub)
    __fpl_return_NaN                         0x0800d523   Thumb Code   100  retnan.o(x$fpl$retnan)
    __ARM_scalbnf                            0x0800d587   Thumb Code    76  scalbnf.o(x$fpl$scalbnf)
    __fpl_cmpreturn                          0x0800d5d3   Thumb Code    48  trapv.o(x$fpl$trapveneer)
    __I$use$fp                               0x0800d602   Number         0  usenofp.o(x$fpl$usenofp)
    asc2_1206                                0x0800d602   Data        1140  ili93xx.o(.constdata)
    asc2_1608                                0x0800da76   Data        1520  ili93xx.o(.constdata)
    asc2_2412                                0x0800e066   Data        3420  ili93xx.o(.constdata)
    FT5206_TPX_TBL                           0x0800edc2   Data          10  ft5206.o(.constdata)
    GT9147_CFG_TBL                           0x0800edcc   Data         184  gt9147.o(.constdata)
    GT9147_TPX_TBL                           0x0800ee84   Data          10  gt9147.o(.constdata)
    OTT_TPX_TBL                              0x0800ee8e   Data          10  ott2001a.o(.constdata)
    TP_REMIND_MSG_TBL                        0x0800ee98   Data           4  touch.o(.constdata)
    memtblsize                               0x0800ee9c   Data           8  malloc.o(.constdata)
    memblksize                               0x0800eea4   Data           8  malloc.o(.constdata)
    memsize                                  0x0800eeac   Data           8  malloc.o(.constdata)
    E_GTABLE                                 0x0800eeb4   Data         972  recognition.o(.constdata)
    E_GARTABLE                               0x0800f280   Data        2500  recognition.o(.constdata)
    E_LDA                                    0x0800fc44   Data       20480  recognition.o(.constdata)
    E_MODEL                                  0x08014c44   Data        9920  recognition.o(.constdata)
    Dic                                      0x08017304   Data          62  recognition.o(.constdata)
    Region$$Table$$Base                      0x08017528   Number         0  anon$$obj.o(Region$$Table)
    Region$$Table$$Limit                     0x08017548   Number         0  anon$$obj.o(Region$$Table)
    __stdout                                 0x20000004   Data           4  usart.o(.data)
    USART_RX_STA                             0x20000008   Data           2  usart.o(.data)
    POINT_COLOR                              0x2000000a   Data           2  ili93xx.o(.data)
    BACK_COLOR                               0x2000000c   Data           2  ili93xx.o(.data)
    TransferError                            0x2000001a   Data           1  sdio_sdcard.o(.data)
    TransferEnd                              0x2000001b   Data           1  sdio_sdcard.o(.data)
    tempbuff                                 0x2000001c   Data           4  sdio_sdcard.o(.data)
    W25QXX_TYPE                              0x20000020   Data           2  w25qxx.o(.data)
    tp_dev                                   0x20000028   Data          52  touch.o(.data)
    CMD_RDX                                  0x2000005c   Data           1  touch.o(.data)
    CMD_RDY                                  0x2000005d   Data           1  touch.o(.data)
    mallco_dev                               0x20000060   Data          28  malloc.o(.data)
    FLASH_SECTOR_COUNT                       0x2000007c   Data           2  diskio.o(.data)
    fs                                       0x2000008c   Data           8  exfuns.o(.data)
    file                                     0x20000094   Data           4  exfuns.o(.data)
    ftemp                                    0x20000098   Data           4  exfuns.o(.data)
    br                                       0x2000009c   Data           4  exfuns.o(.data)
    bw                                       0x200000a0   Data           4  exfuns.o(.data)
    fatbuf                                   0x200000a4   Data           4  exfuns.o(.data)
    picdata                                  0x200000a8   Data           4  recognition.o(.data)
    Gas                                      0x200000ac   Data           4  recognition.o(.data)
    feature                                  0x200000b0   Data           4  recognition.o(.data)
    ldafeature                               0x200000b4   Data           4  recognition.o(.data)
    Hmap                                     0x200000b8   Data           4  recognition.o(.data)
    Vmap                                     0x200000bc   Data           4  recognition.o(.data)
    distance                                 0x200000c0   Data           4  recognition.o(.data)
    READ_BUF                                 0x200000c4   Data         800  test.o(.bss)
    USART_RX_BUF                             0x200003e4   Data         200  usart.o(.bss)
    lcddev                                   0x200004ac   Data          14  ili93xx.o(.bss)
    SDCardInfo                               0x200004e0   Data          88  sdio_sdcard.o(.bss)
    SDIO_DATA_BUFFER                         0x20000538   Data         512  sdio_sdcard.o(.bss)
    W25QXX_BUFFER                            0x20000738   Data        4096  w25qxx.o(.bss)
    mem1base                                 0x20001740   Data       40960  malloc.o(.bss)
    mem1mapbase                              0x2000b740   Data        2560  malloc.o(.bss)
    ftinfo                                   0x2000c140   Data          33  fontupd.o(.bss)
    Htemp                                    0x2000c164   Data          20  recognition.o(.bss)
    Vtemp                                    0x2000c178   Data          20  recognition.o(.bss)
    __libspace_start                         0x2000c18c   Data          96  libspace.o(.bss)
    __temporary_stack_top$libspace           0x2000c1ec   Data           0  libspace.o(.bss)
    mem2base                                 0x68000000   Data       983040  malloc.o(.ARM.__AT_0x68000000)
    mem2mapbase                              0x680f0000   Data       61440  malloc.o(.ARM.__AT_0x680F0000)



==============================================================================

Memory Map of the image

  Image Entry point : 0x08000131

  Load Region LR_IROM1 (Base: 0x08000000, Size: 0x0001760c, Max: 0x00080000, ABSOLUTE)

    Execution Region ER_IROM1 (Base: 0x08000000, Size: 0x00017548, Max: 0x00080000, ABSOLUTE)

    Base Addr    Size         Type   Attr      Idx    E Section Name        Object

    0x08000000   0x00000130   Data   RO            3    RESET               startup_stm32f10x_hd.o
    0x08000130   0x00000008   Code   RO         2174  * !!!main             c_w.l(__main.o)
    0x08000138   0x00000034   Code   RO         2477    !!!scatter          c_w.l(__scatter.o)
    0x0800016c   0x0000001a   Code   RO         2479    !!handler_copy      c_w.l(__scatter_copy.o)
    0x08000186   0x00000002   PAD
    0x08000188   0x0000001c   Code   RO         2481    !!handler_zi        c_w.l(__scatter_zi.o)
    0x080001a4   0x00000000   Code   RO         2161    .ARM.Collect$$_printf_percent$$00000000  c_w.l(_printf_percent.o)
    0x080001a4   0x00000006   Code   RO         2160    .ARM.Collect$$_printf_percent$$00000009  c_w.l(_printf_d.o)
    0x080001aa   0x00000006   Code   RO         2159    .ARM.Collect$$_printf_percent$$0000000C  c_w.l(_printf_x.o)
    0x080001b0   0x00000006   Code   RO         2158    .ARM.Collect$$_printf_percent$$00000014  c_w.l(_printf_s.o)
    0x080001b6   0x00000004   Code   RO         2261    .ARM.Collect$$_printf_percent$$00000017  c_w.l(_printf_percent_end.o)
    0x080001ba   0x00000002   Code   RO         2347    .ARM.Collect$$libinit$$00000000  c_w.l(libinit.o)
    0x080001bc   0x00000000   Code   RO         2357    .ARM.Collect$$libinit$$00000002  c_w.l(libinit2.o)
    0x080001bc   0x00000000   Code   RO         2359    .ARM.Collect$$libinit$$00000004  c_w.l(libinit2.o)
    0x080001bc   0x00000000   Code   RO         2362    .ARM.Collect$$libinit$$0000000A  c_w.l(libinit2.o)
    0x080001bc   0x00000000   Code   RO         2364    .ARM.Collect$$libinit$$0000000C  c_w.l(libinit2.o)
    0x080001bc   0x00000000   Code   RO         2366    .ARM.Collect$$libinit$$0000000E  c_w.l(libinit2.o)
    0x080001bc   0x00000000   Code   RO         2369    .ARM.Collect$$libinit$$00000011  c_w.l(libinit2.o)
    0x080001bc   0x00000000   Code   RO         2371    .ARM.Collect$$libinit$$00000013  c_w.l(libinit2.o)
    0x080001bc   0x00000000   Code   RO         2373    .ARM.Collect$$libinit$$00000015  c_w.l(libinit2.o)
    0x080001bc   0x00000000   Code   RO         2375    .ARM.Collect$$libinit$$00000017  c_w.l(libinit2.o)
    0x080001bc   0x00000000   Code   RO         2377    .ARM.Collect$$libinit$$00000019  c_w.l(libinit2.o)
    0x080001bc   0x00000000   Code   RO         2379    .ARM.Collect$$libinit$$0000001B  c_w.l(libinit2.o)
    0x080001bc   0x00000000   Code   RO         2381    .ARM.Collect$$libinit$$0000001D  c_w.l(libinit2.o)
    0x080001bc   0x00000000   Code   RO         2383    .ARM.Collect$$libinit$$0000001F  c_w.l(libinit2.o)
    0x080001bc   0x00000000   Code   RO         2385    .ARM.Collect$$libinit$$00000021  c_w.l(libinit2.o)
    0x080001bc   0x00000000   Code   RO         2387    .ARM.Collect$$libinit$$00000023  c_w.l(libinit2.o)
    0x080001bc   0x00000000   Code   RO         2389    .ARM.Collect$$libinit$$00000025  c_w.l(libinit2.o)
    0x080001bc   0x00000000   Code   RO         2393    .ARM.Collect$$libinit$$0000002C  c_w.l(libinit2.o)
    0x080001bc   0x00000000   Code   RO         2395    .ARM.Collect$$libinit$$0000002E  c_w.l(libinit2.o)
    0x080001bc   0x00000000   Code   RO         2397    .ARM.Collect$$libinit$$00000030  c_w.l(libinit2.o)
    0x080001bc   0x00000000   Code   RO         2399    .ARM.Collect$$libinit$$00000032  c_w.l(libinit2.o)
    0x080001bc   0x00000002   Code   RO         2400    .ARM.Collect$$libinit$$00000033  c_w.l(libinit2.o)
    0x080001be   0x00000002   Code   RO         2430    .ARM.Collect$$libshutdown$$00000000  c_w.l(libshutdown.o)
    0x080001c0   0x00000000   Code   RO         2445    .ARM.Collect$$libshutdown$$00000003  c_w.l(libshutdown2.o)
    0x080001c0   0x00000000   Code   RO         2448    .ARM.Collect$$libshutdown$$00000006  c_w.l(libshutdown2.o)
    0x080001c0   0x00000000   Code   RO         2451    .ARM.Collect$$libshutdown$$00000009  c_w.l(libshutdown2.o)
    0x080001c0   0x00000000   Code   RO         2453    .ARM.Collect$$libshutdown$$0000000B  c_w.l(libshutdown2.o)
    0x080001c0   0x00000000   Code   RO         2456    .ARM.Collect$$libshutdown$$0000000E  c_w.l(libshutdown2.o)
    0x080001c0   0x00000002   Code   RO         2457    .ARM.Collect$$libshutdown$$0000000F  c_w.l(libshutdown2.o)
    0x080001c2   0x00000000   Code   RO         2250    .ARM.Collect$$rtentry$$00000000  c_w.l(__rtentry.o)
    0x080001c2   0x00000000   Code   RO         2300    .ARM.Collect$$rtentry$$00000002  c_w.l(__rtentry2.o)
    0x080001c2   0x00000006   Code   RO         2312    .ARM.Collect$$rtentry$$00000004  c_w.l(__rtentry4.o)
    0x080001c8   0x00000000   Code   RO         2302    .ARM.Collect$$rtentry$$00000009  c_w.l(__rtentry2.o)
    0x080001c8   0x00000004   Code   RO         2303    .ARM.Collect$$rtentry$$0000000A  c_w.l(__rtentry2.o)
    0x080001cc   0x00000000   Code   RO         2305    .ARM.Collect$$rtentry$$0000000C  c_w.l(__rtentry2.o)
    0x080001cc   0x00000008   Code   RO         2306    .ARM.Collect$$rtentry$$0000000D  c_w.l(__rtentry2.o)
    0x080001d4   0x00000002   Code   RO         2350    .ARM.Collect$$rtexit$$00000000  c_w.l(rtexit.o)
    0x080001d6   0x00000000   Code   RO         2404    .ARM.Collect$$rtexit$$00000002  c_w.l(rtexit2.o)
    0x080001d6   0x00000004   Code   RO         2405    .ARM.Collect$$rtexit$$00000003  c_w.l(rtexit2.o)
    0x080001da   0x00000006   Code   RO         2406    .ARM.Collect$$rtexit$$00000004  c_w.l(rtexit2.o)
    0x080001e0   0x00000034   Code   RO            4    .text               startup_stm32f10x_hd.o
    0x08000214   0x00001bc0   Code   RO         2054    .text               ATKNCR_M_V2.0.lib(recognition.o)
    0x08001dd4   0x00000002   Code   RO         2102    .text               c_w.l(use_no_semi_2.o)
    0x08001dd6   0x00000002   PAD
    0x08001dd8   0x00000018   Code   RO         2108    .text               c_w.l(noretval__2printf.o)
    0x08001df0   0x00000068   Code   RO         2110    .text               c_w.l(__printf.o)
    0x08001e58   0x00000052   Code   RO         2112    .text               c_w.l(_printf_str.o)
    0x08001eaa   0x00000002   PAD
    0x08001eac   0x00000078   Code   RO         2114    .text               c_w.l(_printf_dec.o)
    0x08001f24   0x00000058   Code   RO         2119    .text               c_w.l(_printf_hex_int.o)
    0x08001f7c   0x0000008a   Code   RO         2168    .text               c_w.l(rt_memcpy_v6.o)
    0x08002006   0x00000002   PAD
    0x08002008   0x00000080   Code   RO         2170    .text               c_w.l(strcmpv7m.o)
    0x08002088   0x00000006   Code   RO         2172    .text               c_w.l(heapauxi.o)
    0x0800208e   0x00000002   Code   RO         2248    .text               c_w.l(use_no_semi.o)
    0x08002090   0x00000016   Code   RO         2253    .text               c_w.l(_rserrno.o)
    0x080020a6   0x000000b2   Code   RO         2255    .text               c_w.l(_printf_intcommon.o)
    0x08002158   0x0000002c   Code   RO         2257    .text               c_w.l(_printf_char.o)
    0x08002184   0x00000024   Code   RO         2259    .text               c_w.l(_printf_char_file.o)
    0x080021a8   0x00000064   Code   RO         2262    .text               c_w.l(rt_memcpy_w.o)
    0x0800220c   0x00000008   Code   RO         2321    .text               c_w.l(rt_errno_addr_intlibspace.o)
    0x08002214   0x00000030   Code   RO         2323    .text               c_w.l(_printf_char_common.o)
    0x08002244   0x00000008   Code   RO         2325    .text               c_w.l(ferror.o)
    0x0800224c   0x00000008   Code   RO         2331    .text               c_w.l(libspace.o)
    0x08002254   0x0000004a   Code   RO         2334    .text               c_w.l(sys_stackheap_outer.o)
    0x0800229e   0x0000000c   Code   RO         2340    .text               c_w.l(exit.o)
    0x080022aa   0x00000008   Code   RO          950    i.AT24CXX_Init      24cxx.o
    0x080022b2   0x00000022   Code   RO          951    i.AT24CXX_Read      24cxx.o
    0x080022d4   0x00000058   Code   RO          952    i.AT24CXX_ReadOneByte  24cxx.o
    0x0800232c   0x00000024   Code   RO          953    i.AT24CXX_Write     24cxx.o
    0x08002350   0x00000050   Code   RO          954    i.AT24CXX_WriteOneByte  24cxx.o
    0x080023a0   0x0000000a   Code   RO          994    i.CT_Delay          ctiic.o
    0x080023aa   0x00000002   PAD
    0x080023ac   0x00000054   Code   RO          995    i.CT_IIC_Ack        ctiic.o
    0x08002400   0x00000070   Code   RO          996    i.CT_IIC_Init       ctiic.o
    0x08002470   0x00000054   Code   RO          997    i.CT_IIC_NAck       ctiic.o
    0x080024c4   0x00000070   Code   RO          998    i.CT_IIC_Read_Byte  ctiic.o
    0x08002534   0x00000064   Code   RO          999    i.CT_IIC_Send_Byte  ctiic.o
    0x08002598   0x0000004c   Code   RO         1000    i.CT_IIC_Start      ctiic.o
    0x080025e4   0x00000048   Code   RO         1001    i.CT_IIC_Stop       ctiic.o
    0x0800262c   0x00000064   Code   RO         1002    i.CT_IIC_Wait_Ack   ctiic.o
    0x08002690   0x00000034   Code   RO          532    i.CmdError          sdio_sdcard.o
    0x080026c4   0x00000058   Code   RO          533    i.CmdResp1Error     sdio_sdcard.o
    0x0800271c   0x0000005c   Code   RO          534    i.CmdResp2Error     sdio_sdcard.o
    0x08002778   0x00000038   Code   RO          535    i.CmdResp3Error     sdio_sdcard.o
    0x080027b0   0x00000094   Code   RO          536    i.CmdResp6Error     sdio_sdcard.o
    0x08002844   0x00000054   Code   RO          537    i.CmdResp7Error     sdio_sdcard.o
    0x08002898   0x000000dc   Code   RO         1057    i.FT5206_Init       ft5206.o
    0x08002974   0x00000058   Code   RO         1058    i.FT5206_RD_Reg     ft5206.o
    0x080029cc   0x0000019c   Code   RO         1059    i.FT5206_Scan       ft5206.o
    0x08002b68   0x00000052   Code   RO         1060    i.FT5206_WR_Reg     ft5206.o
    0x08002bba   0x00000002   PAD
    0x08002bbc   0x0000014c   Code   RO          538    i.FindSCR           sdio_sdcard.o
    0x08002d08   0x00000130   Code   RO         1094    i.GT9147_Init       gt9147.o
    0x08002e38   0x00000062   Code   RO         1095    i.GT9147_RD_Reg     gt9147.o
    0x08002e9a   0x00000002   PAD
    0x08002e9c   0x00000200   Code   RO         1096    i.GT9147_Scan       gt9147.o
    0x0800309c   0x0000005c   Code   RO         1097    i.GT9147_Send_Cfg   gt9147.o
    0x080030f8   0x0000005c   Code   RO         1098    i.GT9147_WR_Reg     gt9147.o
    0x08003154   0x000000e0   Code   RO         1996    i.Get_HzMat         text.o
    0x08003234   0x00000050   Code   RO          892    i.IIC_Ack           myiic.o
    0x08003284   0x0000003c   Code   RO          893    i.IIC_Init          myiic.o
    0x080032c0   0x00000050   Code   RO          894    i.IIC_NAck          myiic.o
    0x08003310   0x00000070   Code   RO          895    i.IIC_Read_Byte     myiic.o
    0x08003380   0x00000068   Code   RO          896    i.IIC_Send_Byte     myiic.o
    0x080033e8   0x0000004c   Code   RO          897    i.IIC_Start         myiic.o
    0x08003434   0x0000004c   Code   RO          898    i.IIC_Stop          myiic.o
    0x08003480   0x00000064   Code   RO          899    i.IIC_Wait_Ack      myiic.o
    0x080034e4   0x00000004   Code   RO          170    i.INTX_DISABLE      sys.o
    0x080034e8   0x00000004   Code   RO          171    i.INTX_ENABLE       sys.o
    0x080034ec   0x00000090   Code   RO          539    i.IsCardProgramming  sdio_sdcard.o
    0x0800357c   0x0000006c   Code   RO          513    i.KEY_Init          key.o
    0x080035e8   0x000000a4   Code   RO          514    i.KEY_Scan          key.o
    0x0800368c   0x0000006c   Code   RO          304    i.LCD_Clear         ili93xx.o
    0x080036f8   0x000001c0   Code   RO          308    i.LCD_Display_Dir   ili93xx.o
    0x080038b8   0x000000b0   Code   RO          309    i.LCD_DrawLine      ili93xx.o
    0x08003968   0x00000024   Code   RO          310    i.LCD_DrawPoint     ili93xx.o
    0x0800398c   0x0000003c   Code   RO          311    i.LCD_DrawRectangle  ili93xx.o
    0x080039c8   0x00000098   Code   RO          312    i.LCD_Draw_Circle   ili93xx.o
    0x08003a60   0x0000017c   Code   RO          313    i.LCD_Fast_DrawPoint  ili93xx.o
    0x08003bdc   0x000000bc   Code   RO          314    i.LCD_Fill          ili93xx.o
    0x08003c98   0x000037d0   Code   RO          315    i.LCD_Init          ili93xx.o
    0x08007468   0x00000016   Code   RO          316    i.LCD_Pow           ili93xx.o
    0x0800747e   0x00000002   PAD
    0x08007480   0x00000014   Code   RO          317    i.LCD_RD_DATA       ili93xx.o
    0x08007494   0x00000016   Code   RO          319    i.LCD_ReadReg       ili93xx.o
    0x080074aa   0x00000002   PAD
    0x080074ac   0x00000054   Code   RO          320    i.LCD_SSD_BackLightSet  ili93xx.o
    0x08007500   0x000002ec   Code   RO          321    i.LCD_Scan_Dir      ili93xx.o
    0x080077ec   0x000001a8   Code   RO          322    i.LCD_SetCursor     ili93xx.o
    0x08007994   0x00000128   Code   RO          324    i.LCD_ShowChar      ili93xx.o
    0x08007abc   0x00000094   Code   RO          325    i.LCD_ShowNum       ili93xx.o
    0x08007b50   0x00000066   Code   RO          326    i.LCD_ShowString    ili93xx.o
    0x08007bb6   0x00000002   PAD
    0x08007bb8   0x0000000c   Code   RO          328    i.LCD_WR_DATA       ili93xx.o
    0x08007bc4   0x0000000c   Code   RO          329    i.LCD_WR_REG        ili93xx.o
    0x08007bd0   0x00000014   Code   RO          331    i.LCD_WriteRAM_Prepare  ili93xx.o
    0x08007be4   0x00000010   Code   RO          332    i.LCD_WriteReg      ili93xx.o
    0x08007bf4   0x00000070   Code   RO          291    i.LED_Init          led.o
    0x08007c64   0x00000068   Code   RO          173    i.MYRCC_DeInit      sys.o
    0x08007ccc   0x00000078   Code   RO          174    i.MY_NVIC_Init      sys.o
    0x08007d44   0x00000028   Code   RO          175    i.MY_NVIC_PriorityGroupConfig  sys.o
    0x08007d6c   0x00000014   Code   RO          176    i.MY_NVIC_SetVectorTable  sys.o
    0x08007d80   0x000000a0   Code   RO         1134    i.OTT2001A_Init     ott2001a.o
    0x08007e20   0x00000062   Code   RO         1135    i.OTT2001A_RD_Reg   ott2001a.o
    0x08007e82   0x00000002   PAD
    0x08007e84   0x000001e0   Code   RO         1136    i.OTT2001A_Scan     ott2001a.o
    0x08008064   0x0000001c   Code   RO         1137    i.OTT2001A_SensorControl  ott2001a.o
    0x08008080   0x0000005c   Code   RO         1138    i.OTT2001A_WR_Reg   ott2001a.o
    0x080080dc   0x00000080   Code   RO          540    i.SDEnWideBus       sdio_sdcard.o
    0x0800815c   0x00000014   Code   RO          541    i.SDIO_Clock_Set    sdio_sdcard.o
    0x08008170   0x00000008   Code   RO          542    i.SDIO_IRQHandler   sdio_sdcard.o
    0x08008178   0x00000028   Code   RO          543    i.SDIO_Send_Cmd     sdio_sdcard.o
    0x080081a0   0x00000034   Code   RO          544    i.SDIO_Send_Data_Cfg  sdio_sdcard.o
    0x080081d4   0x00000098   Code   RO          545    i.SD_DMA_Config     sdio_sdcard.o
    0x0800826c   0x00000068   Code   RO          546    i.SD_EnableWideBusOperation  sdio_sdcard.o
    0x080082d4   0x00000314   Code   RO          547    i.SD_GetCardInfo    sdio_sdcard.o
    0x080085e8   0x0000010c   Code   RO          549    i.SD_Init           sdio_sdcard.o
    0x080086f4   0x00000104   Code   RO          550    i.SD_InitializeCards  sdio_sdcard.o
    0x080087f8   0x00000178   Code   RO          552    i.SD_PowerON        sdio_sdcard.o
    0x08008970   0x00000148   Code   RO          553    i.SD_ProcessIRQSrc  sdio_sdcard.o
    0x08008ab8   0x00000220   Code   RO          554    i.SD_ReadBlock      sdio_sdcard.o
    0x08008cd8   0x00000098   Code   RO          555    i.SD_ReadDisk       sdio_sdcard.o
    0x08008d70   0x00000298   Code   RO          556    i.SD_ReadMultiBlocks  sdio_sdcard.o
    0x08009008   0x00000016   Code   RO          557    i.SD_SelectDeselect  sdio_sdcard.o
    0x0800901e   0x00000002   PAD
    0x08009020   0x00000018   Code   RO          559    i.SD_SetDeviceMode  sdio_sdcard.o
    0x08009038   0x00000318   Code   RO          560    i.SD_WriteBlock     sdio_sdcard.o
    0x08009350   0x00000098   Code   RO          561    i.SD_WriteDisk      sdio_sdcard.o
    0x080093e8   0x00000350   Code   RO          562    i.SD_WriteMultiBlocks  sdio_sdcard.o
    0x08009738   0x000000b4   Code   RO          747    i.SPI2_Init         spi.o
    0x080097ec   0x00000058   Code   RO          748    i.SPI2_ReadWriteByte  spi.o
    0x08009844   0x0000002c   Code   RO          749    i.SPI2_SetSpeed     spi.o
    0x08009870   0x000000c8   Code   RO         1997    i.Show_Font         text.o
    0x08009938   0x000000c2   Code   RO         1998    i.Show_Str          text.o
    0x080099fa   0x00000002   PAD
    0x080099fc   0x00000090   Code   RO          177    i.Stm32_Clock_Init  sys.o
    0x08009a8c   0x000001a8   Code   RO         1174    i.TP_Adj_Info_Show  touch.o
    0x08009c34   0x0000085c   Code   RO         1175    i.TP_Adjust         touch.o
    0x0800a490   0x00000070   Code   RO         1177    i.TP_Drow_Touch_Point  touch.o
    0x0800a500   0x00000050   Code   RO         1178    i.TP_Get_Adjdata    touch.o
    0x0800a550   0x00000144   Code   RO         1179    i.TP_Init           touch.o
    0x0800a694   0x00000094   Code   RO         1180    i.TP_Read_AD        touch.o
    0x0800a728   0x00000078   Code   RO         1181    i.TP_Read_XOY       touch.o
    0x0800a7a0   0x00000030   Code   RO         1182    i.TP_Read_XY        touch.o
    0x0800a7d0   0x000000c0   Code   RO         1183    i.TP_Read_XY2       touch.o
    0x0800a890   0x0000001c   Code   RO         1184    i.TP_Save_Adjdata   touch.o
    0x0800a8ac   0x00000110   Code   RO         1185    i.TP_Scan           touch.o
    0x0800a9bc   0x0000004c   Code   RO         1186    i.TP_Write_Byte     touch.o
    0x0800aa08   0x00000084   Code   RO          250    i.USART1_IRQHandler  usart.o
    0x0800aa8c   0x00000058   Code   RO          790    i.W25QXX_Erase_Sector  w25qxx.o
    0x0800aae4   0x00000050   Code   RO          791    i.W25QXX_Init       w25qxx.o
    0x0800ab34   0x00000050   Code   RO          793    i.W25QXX_Read       w25qxx.o
    0x0800ab84   0x00000048   Code   RO          794    i.W25QXX_ReadID     w25qxx.o
    0x0800abcc   0x0000002c   Code   RO          795    i.W25QXX_ReadSR     w25qxx.o
    0x0800abf8   0x00000012   Code   RO          797    i.W25QXX_Wait_Busy  w25qxx.o
    0x0800ac0a   0x00000002   PAD
    0x0800ac0c   0x000000b8   Code   RO          798    i.W25QXX_Write      w25qxx.o
    0x0800acc4   0x00000020   Code   RO          800    i.W25QXX_Write_Enable  w25qxx.o
    0x0800ace4   0x00000046   Code   RO          801    i.W25QXX_Write_NoCheck  w25qxx.o
    0x0800ad2a   0x00000002   PAD
    0x0800ad2c   0x00000054   Code   RO          802    i.W25QXX_Write_Page  w25qxx.o
    0x0800ad80   0x00000026   Code   RO         2283    i.__ARM_fpclassifyf  m_ws.l(fpclassifyf.o)
    0x0800ada6   0x0000000a   Code   RO         2285    i.__mathlib_flt_divzero  m_ws.l(funder.o)
    0x0800adb0   0x00000004   Code   RO         2287    i.__mathlib_flt_infnan2  m_ws.l(funder.o)
    0x0800adb4   0x00000008   Code   RO         2288    i.__mathlib_flt_invalid  m_ws.l(funder.o)
    0x0800adbc   0x0000000a   Code   RO         2289    i.__mathlib_flt_overflow  m_ws.l(funder.o)
    0x0800adc6   0x0000000a   Code   RO         2291    i.__mathlib_flt_underflow  m_ws.l(funder.o)
    0x0800add0   0x00000006   Code   RO          251    i._sys_exit         usart.o
    0x0800add6   0x0000000e   Code   RO         2026    i.alientek_ncr_free  atk_ncr.o
    0x0800ade4   0x0000000e   Code   RO         2027    i.alientek_ncr_malloc  atk_ncr.o
    0x0800adf2   0x00000014   Code   RO         2028    i.alientek_ncr_memset  atk_ncr.o
    0x0800ae06   0x00000002   PAD
    0x0800ae08   0x00000090   Code   RO         1400    i.check_fs          ff.o
    0x0800ae98   0x00000012   Code   RO          563    i.convert_from_bytes_to_power_of_two  sdio_sdcard.o
    0x0800aeaa   0x00000002   PAD
    0x0800aeac   0x00000040   Code   RO          142    i.delay_init        delay.o
    0x0800aeec   0x0000003c   Code   RO          143    i.delay_ms          delay.o
    0x0800af28   0x0000003c   Code   RO          144    i.delay_us          delay.o
    0x0800af64   0x00000038   Code   RO         1340    i.disk_initialize   diskio.o
    0x0800af9c   0x0000007a   Code   RO         1342    i.disk_read         diskio.o
    0x0800b016   0x00000006   Code   RO         1343    i.disk_status       diskio.o
    0x0800b01c   0x0000007a   Code   RO         1344    i.disk_write        diskio.o
    0x0800b096   0x00000002   PAD
    0x0800b098   0x00000084   Code   RO         1746    i.exfuns_init       exfuns.o
    0x0800b11c   0x0000005c   Code   RO         1423    i.f_mount           ff.o
    0x0800b178   0x00000394   Code   RO         1439    i.find_volume       ff.o
    0x0800b50c   0x00000044   Code   RO         1954    i.font_init         fontupd.o
    0x0800b550   0x0000001c   Code   RO          252    i.fputc             usart.o
    0x0800b56c   0x0000004a   Code   RO         1445    i.get_ldnumber      ff.o
    0x0800b5b6   0x00000024   Code   RO           10    i.gui_draw_hline    test.o
    0x0800b5da   0x000000b0   Code   RO           11    i.gui_fill_circle   test.o
    0x0800b68a   0x000000d4   Code   RO           12    i.lcd_draw_bline    test.o
    0x0800b75e   0x00000002   PAD
    0x0800b760   0x000004a0   Code   RO           13    i.main              test.o
    0x0800bc00   0x00000034   Code   RO         1450    i.move_window       ff.o
    0x0800bc34   0x0000006c   Code   RO         1270    i.my_mem_free       malloc.o
    0x0800bca0   0x00000044   Code   RO         1271    i.my_mem_init       malloc.o
    0x0800bce4   0x000000a8   Code   RO         1272    i.my_mem_malloc     malloc.o
    0x0800bd8c   0x00000040   Code   RO         1273    i.my_mem_perused    malloc.o
    0x0800bdcc   0x00000024   Code   RO         1274    i.myfree            malloc.o
    0x0800bdf0   0x00000028   Code   RO         1275    i.mymalloc          malloc.o
    0x0800be18   0x00000014   Code   RO         1277    i.mymemset          malloc.o
    0x0800be2c   0x000005e4   Code   RO         2231    i.powf              m_ws.l(powf.o)
    0x0800c410   0x0000004c   Code   RO         2241    i.sqrt              m_ws.l(sqrt.o)
    0x0800c45c   0x00000052   Code   RO         1458    i.sync_window       ff.o
    0x0800c4ae   0x00000002   PAD
    0x0800c4b0   0x000000dc   Code   RO          253    i.uart_init         usart.o
    0x0800c58c   0x00000150   Code   RO         2176    x$fpl$dadd          fz_ws.l(daddsub_clz.o)
    0x0800c6dc   0x00000018   Code   RO         2264    x$fpl$dcmpinf       fz_ws.l(dcmpi.o)
    0x0800c6f4   0x0000005a   Code   RO         2182    x$fpl$dfixu         fz_ws.l(dfixu.o)
    0x0800c74e   0x0000002e   Code   RO         2187    x$fpl$dflt          fz_ws.l(dflt_clz.o)
    0x0800c77c   0x00000026   Code   RO         2186    x$fpl$dfltu         fz_ws.l(dflt_clz.o)
    0x0800c7a2   0x00000002   PAD
    0x0800c7a4   0x00000078   Code   RO         2192    x$fpl$dleqf         fz_ws.l(dleqf.o)
    0x0800c81c   0x00000154   Code   RO         2194    x$fpl$dmul          fz_ws.l(dmul.o)
    0x0800c970   0x0000009c   Code   RO         2266    x$fpl$dnaninf       fz_ws.l(dnaninf.o)
    0x0800ca0c   0x0000000c   Code   RO         2268    x$fpl$dretinf       fz_ws.l(dretinf.o)
    0x0800ca18   0x0000006c   Code   RO         2196    x$fpl$drleqf        fz_ws.l(drleqf.o)
    0x0800ca84   0x00000016   Code   RO         2177    x$fpl$drsb          fz_ws.l(daddsub_clz.o)
    0x0800ca9a   0x00000002   PAD
    0x0800ca9c   0x000001cc   Code   RO         2270    x$fpl$dsqrt         fz_ws.l(dsqrt_noumaal.o)
    0x0800cc68   0x000001d4   Code   RO         2178    x$fpl$dsub          fz_ws.l(daddsub_clz.o)
    0x0800ce3c   0x00000056   Code   RO         2198    x$fpl$f2d           fz_ws.l(f2d.o)
    0x0800ce92   0x00000002   PAD
    0x0800ce94   0x000000c4   Code   RO         2200    x$fpl$fadd          fz_ws.l(faddsub_clz.o)
    0x0800cf58   0x0000000c   Code   RO         2329    x$fpl$fcheck1       fz_ws.l(fcheck1.o)
    0x0800cf64   0x00000018   Code   RO         2272    x$fpl$fcmpinf       fz_ws.l(fcmpi.o)
    0x0800cf7c   0x00000184   Code   RO         2207    x$fpl$fdiv          fz_ws.l(fdiv.o)
    0x0800d100   0x00000036   Code   RO         2212    x$fpl$ffix          fz_ws.l(ffix.o)
    0x0800d136   0x00000002   PAD
    0x0800d138   0x00000052   Code   RO         2213    x$fpl$ffixr         fz_ws.l(ffix.o)
    0x0800d18a   0x00000002   PAD
    0x0800d18c   0x0000003e   Code   RO         2216    x$fpl$ffixu         fz_ws.l(ffixu.o)
    0x0800d1ca   0x00000002   PAD
    0x0800d1cc   0x00000030   Code   RO         2221    x$fpl$fflt          fz_ws.l(fflt_clz.o)
    0x0800d1fc   0x00000026   Code   RO         2220    x$fpl$ffltu         fz_ws.l(fflt_clz.o)
    0x0800d222   0x00000002   PAD
    0x0800d224   0x00000068   Code   RO         2226    x$fpl$fleqf         fz_ws.l(fleqf.o)
    0x0800d28c   0x00000102   Code   RO         2228    x$fpl$fmul          fz_ws.l(fmul.o)
    0x0800d38e   0x0000008c   Code   RO         2274    x$fpl$fnaninf       fz_ws.l(fnaninf.o)
    0x0800d41a   0x0000000a   Code   RO         2276    x$fpl$fretinf       fz_ws.l(fretinf.o)
    0x0800d424   0x00000014   Code   RO         2201    x$fpl$frsb          fz_ws.l(faddsub_clz.o)
    0x0800d438   0x000000ea   Code   RO         2202    x$fpl$fsub          fz_ws.l(faddsub_clz.o)
    0x0800d522   0x00000064   Code   RO         2348    x$fpl$retnan        fz_ws.l(retnan.o)
    0x0800d586   0x0000004c   Code   RO         2280    x$fpl$scalbnf       fz_ws.l(scalbnf.o)
    0x0800d5d2   0x00000030   Code   RO         2401    x$fpl$trapveneer    fz_ws.l(trapv.o)
    0x0800d602   0x00000000   Code   RO         2282    x$fpl$usenofp       fz_ws.l(usenofp.o)
    0x0800d602   0x000017c0   Data   RO          335    .constdata          ili93xx.o
    0x0800edc2   0x0000000a   Data   RO         1061    .constdata          ft5206.o
    0x0800edcc   0x000000c2   Data   RO         1099    .constdata          gt9147.o
    0x0800ee8e   0x0000000a   Data   RO         1139    .constdata          ott2001a.o
    0x0800ee98   0x00000004   Data   RO         1187    .constdata          touch.o
    0x0800ee9c   0x00000018   Data   RO         1282    .constdata          malloc.o
    0x0800eeb4   0x0000848e   Data   RO         2056    .constdata          ATKNCR_M_V2.0.lib(recognition.o)
    0x08017342   0x00000028   Data   RO         2120    .constdata          c_w.l(_printf_hex_int.o)
    0x0801736a   0x00000002   PAD
    0x0801736c   0x00000140   Data   RO         2232    .constdata          m_ws.l(powf.o)
    0x080174ac   0x00000079   Data   RO         1188    .conststring        touch.o
    0x08017525   0x00000003   PAD
    0x08017528   0x00000020   Data   RO         2475    Region$$Table       anon$$obj.o


    Execution Region RW_IRAM1 (Base: 0x20000000, Size: 0x0000c5f0, Max: 0x00010000, ABSOLUTE)

    Base Addr    Size         Type   Attr      Idx    E Section Name        Object

    0x20000000   0x00000004   Data   RW          145    .data               delay.o
    0x20000004   0x00000006   Data   RW          255    .data               usart.o
    0x2000000a   0x00000004   Data   RW          336    .data               ili93xx.o
    0x2000000e   0x00000001   Data   RW          515    .data               key.o
    0x2000000f   0x00000001   PAD
    0x20000010   0x00000010   Data   RW          565    .data               sdio_sdcard.o
    0x20000020   0x00000002   Data   RW          805    .data               w25qxx.o
    0x20000022   0x00000001   Data   RW         1062    .data               ft5206.o
    0x20000023   0x00000001   Data   RW         1100    .data               gt9147.o
    0x20000024   0x00000001   Data   RW         1140    .data               ott2001a.o
    0x20000025   0x00000003   PAD
    0x20000028   0x00000036   Data   RW         1189    .data               touch.o
    0x2000005e   0x00000002   PAD
    0x20000060   0x0000001c   Data   RW         1283    .data               malloc.o
    0x2000007c   0x00000002   Data   RW         1348    .data               diskio.o
    0x2000007e   0x00000002   PAD
    0x20000080   0x0000000a   Data   RW         1461    .data               ff.o
    0x2000008a   0x00000002   PAD
    0x2000008c   0x0000001c   Data   RW         1751    .data               exfuns.o
    0x200000a8   0x0000001c   Data   RW         2057    .data               ATKNCR_M_V2.0.lib(recognition.o)
    0x200000c4   0x00000320   Zero   RW           15    .bss                test.o
    0x200003e4   0x000000c8   Zero   RW          254    .bss                usart.o
    0x200004ac   0x0000000e   Zero   RW          334    .bss                ili93xx.o
    0x200004ba   0x00000006   PAD
    0x200004c0   0x00000278   Zero   RW          564    .bss                sdio_sdcard.o
    0x20000738   0x00001000   Zero   RW          804    .bss                w25qxx.o
    0x20001738   0x00000008   PAD
    0x20001740   0x0000aa00   Zero   RW         1281    .bss                malloc.o
    0x2000c140   0x00000021   Zero   RW         1958    .bss                fontupd.o
    0x2000c161   0x00000003   PAD
    0x2000c164   0x00000028   Zero   RW         2055    .bss                ATKNCR_M_V2.0.lib(recognition.o)
    0x2000c18c   0x00000060   Zero   RW         2332    .bss                c_w.l(libspace.o)
    0x2000c1ec   0x00000004   PAD
    0x2000c1f0   0x00000000   Zero   RW            2    HEAP                startup_stm32f10x_hd.o
    0x2000c1f0   0x00000400   Zero   RW            1    STACK               startup_stm32f10x_hd.o



  Load Region LR$$.ARM.__AT_0x68000000 (Base: 0x68000000, Size: 0x00000000, Max: 0x000f0000, ABSOLUTE)

    Execution Region ER$$.ARM.__AT_0x68000000 (Base: 0x68000000, Size: 0x000f0000, Max: 0x000f0000, ABSOLUTE, UNINIT)

    Base Addr    Size         Type   Attr      Idx    E Section Name        Object

    0x68000000   0x000f0000   Zero   RW         1279    .ARM.__AT_0x68000000  malloc.o



  Load Region LR$$.ARM.__AT_0x680F0000 (Base: 0x680f0000, Size: 0x00000000, Max: 0x0000f000, ABSOLUTE)

    Execution Region ER$$.ARM.__AT_0x680F0000 (Base: 0x680f0000, Size: 0x0000f000, Max: 0x0000f000, ABSOLUTE, UNINIT)

    Base Addr    Size         Type   Attr      Idx    E Section Name        Object

    0x680f0000   0x0000f000   Zero   RW         1280    .ARM.__AT_0x680F0000  malloc.o


==============================================================================

Image component sizes


      Code (inc. data)   RO Data    RW Data    ZI Data      Debug   Object Name

       246          0          0          0          0       3595   24cxx.o
        48          0          0          0          0       1820   atk_ncr.o
       750        132          0          0          0       5293   ctiic.o
       184         16          0          4          0       1975   delay.o
       306          4          0          2          0       4622   diskio.o
       132         18          0         28          0       1778   exfuns.o
      1360         26          0         10          0      10830   ff.o
        68          4          0          0         33       2321   fontupd.o
       802         42         10          1          0       3853   ft5206.o
      1098         80        194          1          0       4774   gt9147.o
     17762        216       6080          4         14      26783   ili93xx.o
       272         36          0          1          0       1242   key.o
       112         12          0          0          0        515   led.o
       504         60         24         28    1088000       6629   malloc.o
       688        104          0          0          0       4714   myiic.o
       858         64         10          1          0       4439   ott2001a.o
      6736        336          0         16        632      34867   sdio_sdcard.o
       312         28          0          0          0       1797   spi.o
        52         18        304          0       1024        852   startup_stm32f10x_hd.o
       436         44          0          0          0       4121   sys.o
      1608        230          0          0        800     213414   test.o
       618         14          0          0          0       3495   text.o
      3964        270        125         54          0      11013   touch.o
       386         36          0          6        200       4444   usart.o
       752         74          0          2       4096       7417   w25qxx.o

    ----------------------------------------------------------------------
     40086       1864       6782        168    1094816     366603   Object Totals
         0          0         32          0          0          0   (incl. Generated)
        32          0          3         10         17          0   (incl. Padding)

    ----------------------------------------------------------------------

      Code (inc. data)   RO Data    RW Data    ZI Data      Debug   Library Member Name

      7104        142      33934         28         40      12863   recognition.o
         8          0          0          0          0         68   __main.o
       104          0          0          0          0         84   __printf.o
         0          0          0          0          0          0   __rtentry.o
        12          0          0          0          0          0   __rtentry2.o
         6          0          0          0          0          0   __rtentry4.o
        52          8          0          0          0          0   __scatter.o
        26          0          0          0          0          0   __scatter_copy.o
        28          0          0          0          0          0   __scatter_zi.o
        44          0          0          0          0        108   _printf_char.o
        48          6          0          0          0         96   _printf_char_common.o
        36          4          0          0          0         80   _printf_char_file.o
         6          0          0          0          0          0   _printf_d.o
       120         16          0          0          0         92   _printf_dec.o
        88          4         40          0          0         88   _printf_hex_int.o
       178          0          0          0          0         88   _printf_intcommon.o
         0          0          0          0          0          0   _printf_percent.o
         4          0          0          0          0          0   _printf_percent_end.o
         6          0          0          0          0          0   _printf_s.o
        82          0          0          0          0         80   _printf_str.o
         6          0          0          0          0          0   _printf_x.o
        22          0          0          0          0        100   _rserrno.o
        12          0          0          0          0         72   exit.o
         8          0          0          0          0         68   ferror.o
         6          0          0          0          0        152   heapauxi.o
         2          0          0          0          0          0   libinit.o
         2          0          0          0          0          0   libinit2.o
         2          0          0          0          0          0   libshutdown.o
         2          0          0          0          0          0   libshutdown2.o
         8          4          0          0         96         68   libspace.o
        24          4          0          0          0         84   noretval__2printf.o
         8          4          0          0          0         68   rt_errno_addr_intlibspace.o
       138          0          0          0          0         68   rt_memcpy_v6.o
       100          0          0          0          0         80   rt_memcpy_w.o
         2          0          0          0          0          0   rtexit.o
        10          0          0          0          0          0   rtexit2.o
       128          0          0          0          0         68   strcmpv7m.o
        74          0          0          0          0         80   sys_stackheap_outer.o
         2          0          0          0          0         68   use_no_semi.o
         2          0          0          0          0         68   use_no_semi_2.o
       826         16          0          0          0        348   daddsub_clz.o
        24          0          0          0          0         68   dcmpi.o
        90          4          0          0          0         92   dfixu.o
        84          0          0          0          0        136   dflt_clz.o
       120          4          0          0          0         92   dleqf.o
       340         12          0          0          0        104   dmul.o
       156          4          0          0          0         92   dnaninf.o
        12          0          0          0          0         68   dretinf.o
       108          0          0          0          0         80   drleqf.o
       460         56          0          0          0        120   dsqrt_noumaal.o
        86          4          0          0          0         84   f2d.o
       450          8          0          0          0        236   faddsub_clz.o
        12          4          0          0          0         68   fcheck1.o
        24          0          0          0          0         68   fcmpi.o
       388         76          0          0          0         96   fdiv.o
       136          8          0          0          0        168   ffix.o
        62          4          0          0          0         84   ffixu.o
        86          0          0          0          0        136   fflt_clz.o
       104          4          0          0          0         84   fleqf.o
       258          4          0          0          0         84   fmul.o
       140          4          0          0          0         84   fnaninf.o
        10          0          0          0          0         68   fretinf.o
       100          0          0          0          0         68   retnan.o
        76          0          0          0          0         68   scalbnf.o
        48          0          0          0          0         68   trapv.o
         0          0          0          0          0          0   usenofp.o
        38          0          0          0          0         68   fpclassifyf.o
        42          0          0          0          0        340   funder.o
      1508         76        320          0          0        224   powf.o
        76          0          0          0          0         84   sqrt.o

    ----------------------------------------------------------------------
     14396        480      34296         28        140      18071   Library Totals
        22          0          2          0          4          0   (incl. Padding)

    ----------------------------------------------------------------------

      Code (inc. data)   RO Data    RW Data    ZI Data      Debug   Library Name

      7104        142      33934         28         40      12863   ATKNCR_M_V2.0.lib
      1406         50         40          0         96       1828   c_w.l
      4200        212          0          0          0       2664   fz_ws.l
      1664         76        320          0          0        716   m_ws.l

    ----------------------------------------------------------------------
     14396        480      34296         28        140      18071   Library Totals

    ----------------------------------------------------------------------

==============================================================================


      Code (inc. data)   RO Data    RW Data    ZI Data      Debug   

     54482       2344      41078        196    1094956     373698   Grand Totals
     54482       2344      41078        196    1094956     373698   ELF Image Totals
     54482       2344      41078        196          0          0   ROM Totals

==============================================================================

    Total RO  Size (Code + RO Data)                95560 (  93.32kB)
    Total RW  Size (RW Data + ZI Data)           1095152 (1069.48kB)
    Total ROM Size (Code + RO Data + RW Data)      95756 (  93.51kB)

==============================================================================

